	.section	__TEXT,__text,regular,pure_instructions
	.build_version macos, 15, 0	sdk_version 15, 5
	.file	0 "/Users/csimms/Developer/localbolt" "hello.cpp" md5 0x519e2c61bf6b197a343728d0191feede
	.file	1 "/Library/Developer/CommandLineTools/SDKs/MacOSX.sdk/usr/include/c++/v1" "ios"
	.file	2 "/Library/Developer/CommandLineTools/usr/lib/clang/17/include" "__stddef_ptrdiff_t.h" md5 0x21e0c40f3315797d915cc7ea60040a98
	.file	3 "/Library/Developer/CommandLineTools/usr/lib/clang/17/include" "__stddef_size_t.h" md5 0x2c44e821a2b1951cde2eb0fb2e656867
	.file	4 "/Library/Developer/CommandLineTools/SDKs/MacOSX.sdk/usr/include/c++/v1" "__locale"
	.file	5 "/Library/Developer/CommandLineTools/SDKs/MacOSX.sdk/usr/include/c++/v1/__string" "char_traits.h"
	.file	6 "/Library/Developer/CommandLineTools/SDKs/MacOSX.sdk/usr/include/c++/v1/__memory" "allocator.h"
	.file	7 "/Library/Developer/CommandLineTools/SDKs/MacOSX.sdk/usr/include/c++/v1/__memory" "allocator_traits.h"
	.file	8 "/Library/Developer/CommandLineTools/SDKs/MacOSX.sdk/usr/include/c++/v1" "string"
	.file	9 "/Library/Developer/CommandLineTools/SDKs/MacOSX.sdk/usr/include/c++/v1/__memory" "compressed_pair.h"
	.file	10 "/Library/Developer/CommandLineTools/SDKs/MacOSX.sdk/usr/include/c++/v1" "initializer_list"
	.file	11 "/Library/Developer/CommandLineTools/SDKs/MacOSX.sdk/usr/include/c++/v1" "string_view"
	.file	12 "/Library/Developer/CommandLineTools/SDKs/MacOSX.sdk/usr/include/c++/v1/__fwd" "string_view.h"
	.file	13 "/Library/Developer/CommandLineTools/SDKs/MacOSX.sdk/usr/include/c++/v1/__type_traits" "integral_constant.h"
	.file	14 "/Library/Developer/CommandLineTools/SDKs/MacOSX.sdk/usr/include/c++/v1/__fwd" "string.h"
	.file	15 "/Library/Developer/CommandLineTools/SDKs/MacOSX.sdk/usr/include/c++/v1/__utility" "private_constructor_tag.h"
	.file	16 "/Library/Developer/CommandLineTools/SDKs/MacOSX.sdk/usr/include/c++/v1/__memory" "shared_ptr.h"
	.file	17 "/Library/Developer/CommandLineTools/SDKs/MacOSX.sdk/usr/include/c++/v1/__mutex" "once_flag.h"
	.file	18 "/Library/Developer/CommandLineTools/SDKs/MacOSX.sdk/usr/include/sys/_types" "_int32_t.h" md5 0xd23e8406e80ee79983f28509c741fa17
	.file	19 "/Library/Developer/CommandLineTools/SDKs/MacOSX.sdk/usr/include/c++/v1/__iterator" "iterator_traits.h"
	.file	20 "/Library/Developer/CommandLineTools/SDKs/MacOSX.sdk/usr/include/c++/v1/__iterator" "iterator.h"
	.file	21 "/Library/Developer/CommandLineTools/SDKs/MacOSX.sdk/usr/include/c++/v1" "streambuf"
	.file	22 "/Library/Developer/CommandLineTools/SDKs/MacOSX.sdk/usr/include/c++/v1" "iosfwd"
	.file	23 "/Library/Developer/CommandLineTools/SDKs/MacOSX.sdk/usr/include/c++/v1/__fwd" "ios.h"
	.file	24 "/Library/Developer/CommandLineTools/SDKs/MacOSX.sdk/usr/include/c++/v1/__fwd" "streambuf.h"
	.file	25 "/Library/Developer/CommandLineTools/SDKs/MacOSX.sdk/usr/include/c++/v1/__iterator" "ostreambuf_iterator.h"
	.file	26 "/Library/Developer/CommandLineTools/SDKs/MacOSX.sdk/usr/include/c++/v1/__ostream" "basic_ostream.h"
	.file	27 "/Library/Developer/CommandLineTools/SDKs/MacOSX.sdk/usr/include/c++/v1/__fwd" "ostream.h"
	.globl	__Z3addii                       ; -- Begin function _Z3addii
	.p2align	2
__Z3addii:                              ; @_Z3addii
Lfunc_begin0:
	.loc	0 5 0                           ; hello.cpp:5:0
	.cfi_startproc
; %bb.0:
	sub	sp, sp, #16
	.cfi_def_cfa_offset 16
	str	w0, [sp, #12]
	str	w1, [sp, #8]
Ltmp1:
	.loc	0 6 12 prologue_end             ; hello.cpp:6:12
	ldr	w8, [sp, #12]
	.loc	0 6 16 is_stmt 0                ; hello.cpp:6:16
	ldr	w9, [sp, #8]
	.loc	0 6 14                          ; hello.cpp:6:14
	add	w0, w8, w9
	.loc	0 6 5 epilogue_begin            ; hello.cpp:6:5
	add	sp, sp, #16
	ret
Ltmp2:
Lfunc_end0:
	.cfi_endproc
                                        ; -- End function
	.globl	_main                           ; -- Begin function main
	.p2align	2
_main:                                  ; @main
Lfunc_begin1:
	.loc	0 9 0 is_stmt 1                 ; hello.cpp:9:0
	.cfi_startproc
; %bb.0:
	sub	sp, sp, #32
	stp	x29, x30, [sp, #16]             ; 16-byte Folded Spill
	add	x29, sp, #16
	.cfi_def_cfa w29, 16
	.cfi_offset w30, -8
	.cfi_offset w29, -16
	stur	wzr, [x29, #-4]
Ltmp3:
	.loc	0 10 10 prologue_end            ; hello.cpp:10:10
	adrp	x0, __ZNSt3__14coutE@GOTPAGE
	ldr	x0, [x0, __ZNSt3__14coutE@GOTPAGEOFF]
	adrp	x1, l_.str@PAGE
	add	x1, x1, l_.str@PAGEOFF
	bl	__ZNSt3__1lsB8ne190102INS_11char_traitsIcEEEERNS_13basic_ostreamIcT_EES6_PKc
	.loc	0 11 12                         ; hello.cpp:11:12
	mov	w0, #10                         ; =0xa
	mov	w1, #20                         ; =0x14
	bl	__Z3addii
	.loc	0 11 5 epilogue_begin is_stmt 0 ; hello.cpp:11:5
	ldp	x29, x30, [sp, #16]             ; 16-byte Folded Reload
	add	sp, sp, #32
	ret
Ltmp4:
Lfunc_end1:
	.cfi_endproc
                                        ; -- End function
	.private_extern	__ZNSt3__1lsB8ne190102INS_11char_traitsIcEEEERNS_13basic_ostreamIcT_EES6_PKc ; -- Begin function _ZNSt3__1lsB8ne190102INS_11char_traitsIcEEEERNS_13basic_ostreamIcT_EES6_PKc
	.globl	__ZNSt3__1lsB8ne190102INS_11char_traitsIcEEEERNS_13basic_ostreamIcT_EES6_PKc
	.weak_definition	__ZNSt3__1lsB8ne190102INS_11char_traitsIcEEEERNS_13basic_ostreamIcT_EES6_PKc
	.p2align	2
__ZNSt3__1lsB8ne190102INS_11char_traitsIcEEEERNS_13basic_ostreamIcT_EES6_PKc: ; @_ZNSt3__1lsB8ne190102INS_11char_traitsIcEEEERNS_13basic_ostreamIcT_EES6_PKc
Lfunc_begin2:
	.loc	26 618 0 is_stmt 1              ; /Library/Developer/CommandLineTools/SDKs/MacOSX.sdk/usr/include/c++/v1/__ostream/basic_ostream.h:618:0
	.cfi_startproc
; %bb.0:
	sub	sp, sp, #48
	stp	x29, x30, [sp, #32]             ; 16-byte Folded Spill
	add	x29, sp, #32
	.cfi_def_cfa w29, 16
	.cfi_offset w30, -8
	.cfi_offset w29, -16
	stur	x0, [x29, #-8]
	str	x1, [sp, #16]
Ltmp5:
	.loc	26 619 40 prologue_end          ; /Library/Developer/CommandLineTools/SDKs/MacOSX.sdk/usr/include/c++/v1/__ostream/basic_ostream.h:619:40
	ldur	x8, [x29, #-8]
	str	x8, [sp, #8]                    ; 8-byte Folded Spill
	.loc	26 619 46 is_stmt 0             ; /Library/Developer/CommandLineTools/SDKs/MacOSX.sdk/usr/include/c++/v1/__ostream/basic_ostream.h:619:46
	ldr	x8, [sp, #16]
	str	x8, [sp]                        ; 8-byte Folded Spill
	.loc	26 619 69                       ; /Library/Developer/CommandLineTools/SDKs/MacOSX.sdk/usr/include/c++/v1/__ostream/basic_ostream.h:619:69
	ldr	x0, [sp, #16]
	.loc	26 619 53                       ; /Library/Developer/CommandLineTools/SDKs/MacOSX.sdk/usr/include/c++/v1/__ostream/basic_ostream.h:619:53
	bl	__ZNSt3__111char_traitsIcE6lengthB8ne190102EPKc
	ldr	x1, [sp]                        ; 8-byte Folded Reload
	mov	x2, x0
	ldr	x0, [sp, #8]                    ; 8-byte Folded Reload
	.loc	26 619 10                       ; /Library/Developer/CommandLineTools/SDKs/MacOSX.sdk/usr/include/c++/v1/__ostream/basic_ostream.h:619:10
	bl	__ZNSt3__124__put_character_sequenceB8ne190102IcNS_11char_traitsIcEEEERNS_13basic_ostreamIT_T0_EES7_PKS4_m
	.loc	26 619 3 epilogue_begin         ; /Library/Developer/CommandLineTools/SDKs/MacOSX.sdk/usr/include/c++/v1/__ostream/basic_ostream.h:619:3
	ldp	x29, x30, [sp, #32]             ; 16-byte Folded Reload
	add	sp, sp, #48
	ret
Ltmp6:
Lfunc_end2:
	.cfi_endproc
                                        ; -- End function
	.private_extern	__ZNSt3__124__put_character_sequenceB8ne190102IcNS_11char_traitsIcEEEERNS_13basic_ostreamIT_T0_EES7_PKS4_m ; -- Begin function _ZNSt3__124__put_character_sequenceB8ne190102IcNS_11char_traitsIcEEEERNS_13basic_ostreamIT_T0_EES7_PKS4_m
	.globl	__ZNSt3__124__put_character_sequenceB8ne190102IcNS_11char_traitsIcEEEERNS_13basic_ostreamIT_T0_EES7_PKS4_m
	.weak_definition	__ZNSt3__124__put_character_sequenceB8ne190102IcNS_11char_traitsIcEEEERNS_13basic_ostreamIT_T0_EES7_PKS4_m
	.p2align	2
__ZNSt3__124__put_character_sequenceB8ne190102IcNS_11char_traitsIcEEEERNS_13basic_ostreamIT_T0_EES7_PKS4_m: ; @_ZNSt3__124__put_character_sequenceB8ne190102IcNS_11char_traitsIcEEEERNS_13basic_ostreamIT_T0_EES7_PKS4_m
Lfunc_begin3:
	.loc	26 499 0 is_stmt 1              ; /Library/Developer/CommandLineTools/SDKs/MacOSX.sdk/usr/include/c++/v1/__ostream/basic_ostream.h:499:0
	.cfi_startproc
	.cfi_personality 155, ___gxx_personality_v0
	.cfi_lsda 16, Lexception0
; %bb.0:
	sub	sp, sp, #160
	stp	x29, x30, [sp, #144]            ; 16-byte Folded Spill
	add	x29, sp, #144
	.cfi_def_cfa w29, 16
	.cfi_offset w30, -8
	.cfi_offset w29, -16
	stur	x0, [x29, #-8]
	stur	x1, [x29, #-16]
	stur	x2, [x29, #-24]
Ltmp27:
	.loc	26 503 57 prologue_end          ; /Library/Developer/CommandLineTools/SDKs/MacOSX.sdk/usr/include/c++/v1/__ostream/basic_ostream.h:503:57
	ldur	x1, [x29, #-8]
Ltmp7:
	.loc	26 503 53 is_stmt 0             ; /Library/Developer/CommandLineTools/SDKs/MacOSX.sdk/usr/include/c++/v1/__ostream/basic_ostream.h:503:53
	sub	x0, x29, #40
	bl	__ZNSt3__113basic_ostreamIcNS_11char_traitsIcEEE6sentryC1ERS3_
Ltmp8:
	b	LBB3_1
LBB3_1:
Ltmp10:
Ltmp28:
	.loc	26 504 9 is_stmt 1              ; /Library/Developer/CommandLineTools/SDKs/MacOSX.sdk/usr/include/c++/v1/__ostream/basic_ostream.h:504:9
	sub	x0, x29, #40
	bl	__ZNKSt3__113basic_ostreamIcNS_11char_traitsIcEEE6sentrycvbB8ne190102Ev
	str	w0, [sp, #68]                   ; 4-byte Folded Spill
Ltmp11:
	b	LBB3_2
Ltmp29:
LBB3_2:
	.loc	26 0 9 is_stmt 0                ; /Library/Developer/CommandLineTools/SDKs/MacOSX.sdk/usr/include/c++/v1/__ostream/basic_ostream.h:0:9
	ldr	w8, [sp, #68]                   ; 4-byte Folded Reload
	.loc	26 504 9                        ; /Library/Developer/CommandLineTools/SDKs/MacOSX.sdk/usr/include/c++/v1/__ostream/basic_ostream.h:504:9
	tbz	w8, #0, LBB3_18
	b	LBB3_3
LBB3_3:
Ltmp30:
	.loc	26 507 19 is_stmt 1             ; /Library/Developer/CommandLineTools/SDKs/MacOSX.sdk/usr/include/c++/v1/__ostream/basic_ostream.h:507:19
	ldur	x1, [x29, #-8]
	.loc	26 507 15 is_stmt 0             ; /Library/Developer/CommandLineTools/SDKs/MacOSX.sdk/usr/include/c++/v1/__ostream/basic_ostream.h:507:15
	add	x0, sp, #72
	bl	__ZNSt3__119ostreambuf_iteratorIcNS_11char_traitsIcEEEC1B8ne190102ERNS_13basic_ostreamIcS2_EE
	.loc	26 508 15 is_stmt 1             ; /Library/Developer/CommandLineTools/SDKs/MacOSX.sdk/usr/include/c++/v1/__ostream/basic_ostream.h:508:15
	ldur	x8, [x29, #-16]
	str	x8, [sp, #56]                   ; 8-byte Folded Spill
	.loc	26 509 16                       ; /Library/Developer/CommandLineTools/SDKs/MacOSX.sdk/usr/include/c++/v1/__ostream/basic_ostream.h:509:16
	ldur	x8, [x29, #-8]
	ldr	x9, [x8]
	ldur	x9, [x9, #-24]
	add	x0, x8, x9
Ltmp12:
	.loc	26 509 21 is_stmt 0             ; /Library/Developer/CommandLineTools/SDKs/MacOSX.sdk/usr/include/c++/v1/__ostream/basic_ostream.h:509:21
	bl	__ZNKSt3__18ios_base5flagsB8ne190102Ev
	str	w0, [sp, #64]                   ; 4-byte Folded Spill
Ltmp13:
	b	LBB3_4
LBB3_4:
	.loc	26 0 21                         ; /Library/Developer/CommandLineTools/SDKs/MacOSX.sdk/usr/include/c++/v1/__ostream/basic_ostream.h:0:21
	ldr	w8, [sp, #64]                   ; 4-byte Folded Reload
	.loc	26 509 29                       ; /Library/Developer/CommandLineTools/SDKs/MacOSX.sdk/usr/include/c++/v1/__ostream/basic_ostream.h:509:29
	mov	w9, #176                        ; =0xb0
	and	w8, w8, w9
	.loc	26 509 15                       ; /Library/Developer/CommandLineTools/SDKs/MacOSX.sdk/usr/include/c++/v1/__ostream/basic_ostream.h:509:15
	subs	w8, w8, #32
	b.ne	LBB3_6
	b	LBB3_5
LBB3_5:
	.loc	26 509 74                       ; /Library/Developer/CommandLineTools/SDKs/MacOSX.sdk/usr/include/c++/v1/__ostream/basic_ostream.h:509:74
	ldur	x8, [x29, #-16]
	.loc	26 509 82                       ; /Library/Developer/CommandLineTools/SDKs/MacOSX.sdk/usr/include/c++/v1/__ostream/basic_ostream.h:509:82
	ldur	x9, [x29, #-24]
	.loc	26 509 80                       ; /Library/Developer/CommandLineTools/SDKs/MacOSX.sdk/usr/include/c++/v1/__ostream/basic_ostream.h:509:80
	add	x8, x8, x9
	str	x8, [sp, #48]                   ; 8-byte Folded Spill
	.loc	26 509 15                       ; /Library/Developer/CommandLineTools/SDKs/MacOSX.sdk/usr/include/c++/v1/__ostream/basic_ostream.h:509:15
	b	LBB3_7
LBB3_6:
	.loc	26 509 90                       ; /Library/Developer/CommandLineTools/SDKs/MacOSX.sdk/usr/include/c++/v1/__ostream/basic_ostream.h:509:90
	ldur	x8, [x29, #-16]
	str	x8, [sp, #48]                   ; 8-byte Folded Spill
	.loc	26 509 15                       ; /Library/Developer/CommandLineTools/SDKs/MacOSX.sdk/usr/include/c++/v1/__ostream/basic_ostream.h:509:15
	b	LBB3_7
LBB3_7:
	.loc	26 0 15                         ; /Library/Developer/CommandLineTools/SDKs/MacOSX.sdk/usr/include/c++/v1/__ostream/basic_ostream.h:0:15
	ldr	x8, [sp, #48]                   ; 8-byte Folded Reload
	str	x8, [sp, #16]                   ; 8-byte Folded Spill
	.loc	26 510 15 is_stmt 1             ; /Library/Developer/CommandLineTools/SDKs/MacOSX.sdk/usr/include/c++/v1/__ostream/basic_ostream.h:510:15
	ldur	x8, [x29, #-16]
	.loc	26 510 23 is_stmt 0             ; /Library/Developer/CommandLineTools/SDKs/MacOSX.sdk/usr/include/c++/v1/__ostream/basic_ostream.h:510:23
	ldur	x9, [x29, #-24]
	.loc	26 510 21                       ; /Library/Developer/CommandLineTools/SDKs/MacOSX.sdk/usr/include/c++/v1/__ostream/basic_ostream.h:510:21
	add	x8, x8, x9
	str	x8, [sp, #24]                   ; 8-byte Folded Spill
	.loc	26 511 15 is_stmt 1             ; /Library/Developer/CommandLineTools/SDKs/MacOSX.sdk/usr/include/c++/v1/__ostream/basic_ostream.h:511:15
	ldur	x8, [x29, #-8]
	ldr	x9, [x8]
	ldur	x9, [x9, #-24]
	add	x8, x8, x9
	str	x8, [sp, #32]                   ; 8-byte Folded Spill
	.loc	26 512 15                       ; /Library/Developer/CommandLineTools/SDKs/MacOSX.sdk/usr/include/c++/v1/__ostream/basic_ostream.h:512:15
	ldur	x8, [x29, #-8]
	ldr	x9, [x8]
	ldur	x9, [x9, #-24]
	add	x0, x8, x9
Ltmp14:
	.loc	26 512 20 is_stmt 0             ; /Library/Developer/CommandLineTools/SDKs/MacOSX.sdk/usr/include/c++/v1/__ostream/basic_ostream.h:512:20
	bl	__ZNKSt3__19basic_iosIcNS_11char_traitsIcEEE4fillB8ne190102Ev
	str	w0, [sp, #44]                   ; 4-byte Folded Spill
Ltmp15:
	b	LBB3_8
LBB3_8:
	.loc	26 0 20                         ; /Library/Developer/CommandLineTools/SDKs/MacOSX.sdk/usr/include/c++/v1/__ostream/basic_ostream.h:0:20
	ldr	w5, [sp, #44]                   ; 4-byte Folded Reload
	ldr	x4, [sp, #32]                   ; 8-byte Folded Reload
	ldr	x3, [sp, #24]                   ; 8-byte Folded Reload
	ldr	x2, [sp, #16]                   ; 8-byte Folded Reload
	ldr	x1, [sp, #56]                   ; 8-byte Folded Reload
	.loc	26 506 11 is_stmt 1             ; /Library/Developer/CommandLineTools/SDKs/MacOSX.sdk/usr/include/c++/v1/__ostream/basic_ostream.h:506:11
	ldr	x0, [sp, #72]
Ltmp16:
	bl	__ZNSt3__116__pad_and_outputB8ne190102IcNS_11char_traitsIcEEEENS_19ostreambuf_iteratorIT_T0_EES6_PKS4_S8_S8_RNS_8ios_baseES4_
	str	x0, [sp, #8]                    ; 8-byte Folded Spill
Ltmp17:
	b	LBB3_9
LBB3_9:
	.loc	26 0 11 is_stmt 0               ; /Library/Developer/CommandLineTools/SDKs/MacOSX.sdk/usr/include/c++/v1/__ostream/basic_ostream.h:0:11
	ldr	x8, [sp, #8]                    ; 8-byte Folded Reload
	sub	x0, x29, #64
	.loc	26 506 11                       ; /Library/Developer/CommandLineTools/SDKs/MacOSX.sdk/usr/include/c++/v1/__ostream/basic_ostream.h:506:11
	stur	x8, [x29, #-64]
	.loc	26 513 16 is_stmt 1             ; /Library/Developer/CommandLineTools/SDKs/MacOSX.sdk/usr/include/c++/v1/__ostream/basic_ostream.h:513:16
	bl	__ZNKSt3__119ostreambuf_iteratorIcNS_11char_traitsIcEEE6failedB8ne190102Ev
Ltmp31:
	.loc	26 506 11                       ; /Library/Developer/CommandLineTools/SDKs/MacOSX.sdk/usr/include/c++/v1/__ostream/basic_ostream.h:506:11
	tbz	w0, #0, LBB3_17
	b	LBB3_10
LBB3_10:
Ltmp32:
	.loc	26 514 9                        ; /Library/Developer/CommandLineTools/SDKs/MacOSX.sdk/usr/include/c++/v1/__ostream/basic_ostream.h:514:9
	ldur	x8, [x29, #-8]
	ldr	x9, [x8]
	ldur	x9, [x9, #-24]
	add	x0, x8, x9
Ltmp18:
	.loc	26 514 14 is_stmt 0             ; /Library/Developer/CommandLineTools/SDKs/MacOSX.sdk/usr/include/c++/v1/__ostream/basic_ostream.h:514:14
	mov	w1, #5                          ; =0x5
	bl	__ZNSt3__19basic_iosIcNS_11char_traitsIcEEE8setstateB8ne190102Ej
Ltmp19:
	b	LBB3_11
LBB3_11:
	.loc	26 514 9                        ; /Library/Developer/CommandLineTools/SDKs/MacOSX.sdk/usr/include/c++/v1/__ostream/basic_ostream.h:514:9
	b	LBB3_17
Ltmp33:
LBB3_12:
Ltmp9:
	.loc	26 522 1 is_stmt 1              ; /Library/Developer/CommandLineTools/SDKs/MacOSX.sdk/usr/include/c++/v1/__ostream/basic_ostream.h:522:1
	stur	x0, [x29, #-48]
	mov	x8, x1
	stur	w8, [x29, #-52]
	b	LBB3_14
LBB3_13:
Ltmp20:
Ltmp34:
	.loc	26 522 1 is_stmt 0              ; /Library/Developer/CommandLineTools/SDKs/MacOSX.sdk/usr/include/c++/v1/__ostream/basic_ostream.h:522:1
	stur	x0, [x29, #-48]
	mov	x8, x1
	stur	w8, [x29, #-52]
Ltmp35:
	.loc	26 517 3 is_stmt 1              ; /Library/Developer/CommandLineTools/SDKs/MacOSX.sdk/usr/include/c++/v1/__ostream/basic_ostream.h:517:3
	sub	x0, x29, #40
	bl	__ZNSt3__113basic_ostreamIcNS_11char_traitsIcEEE6sentryD1Ev
	b	LBB3_14
LBB3_14:
Ltmp36:
	.loc	26 517 3 is_stmt 0              ; /Library/Developer/CommandLineTools/SDKs/MacOSX.sdk/usr/include/c++/v1/__ostream/basic_ostream.h:517:3
	ldur	x0, [x29, #-48]
	bl	___cxa_begin_catch
Ltmp37:
	.loc	26 518 5 is_stmt 1              ; /Library/Developer/CommandLineTools/SDKs/MacOSX.sdk/usr/include/c++/v1/__ostream/basic_ostream.h:518:5
	ldur	x8, [x29, #-8]
	ldr	x9, [x8]
	ldur	x9, [x9, #-24]
	add	x0, x8, x9
Ltmp21:
	.loc	26 518 10 is_stmt 0             ; /Library/Developer/CommandLineTools/SDKs/MacOSX.sdk/usr/include/c++/v1/__ostream/basic_ostream.h:518:10
	bl	__ZNSt3__18ios_base33__set_badbit_and_consider_rethrowEv
Ltmp22:
	b	LBB3_15
LBB3_15:
	.loc	26 519 3 is_stmt 1              ; /Library/Developer/CommandLineTools/SDKs/MacOSX.sdk/usr/include/c++/v1/__ostream/basic_ostream.h:519:3
	bl	___cxa_end_catch
	b	LBB3_16
Ltmp38:
LBB3_16:
	.loc	26 521 10                       ; /Library/Developer/CommandLineTools/SDKs/MacOSX.sdk/usr/include/c++/v1/__ostream/basic_ostream.h:521:10
	ldur	x0, [x29, #-8]
	.loc	26 521 3 epilogue_begin is_stmt 0 ; /Library/Developer/CommandLineTools/SDKs/MacOSX.sdk/usr/include/c++/v1/__ostream/basic_ostream.h:521:3
	ldp	x29, x30, [sp, #144]            ; 16-byte Folded Reload
	add	sp, sp, #160
	ret
LBB3_17:
Ltmp39:
	.loc	26 515 5 is_stmt 1              ; /Library/Developer/CommandLineTools/SDKs/MacOSX.sdk/usr/include/c++/v1/__ostream/basic_ostream.h:515:5
	b	LBB3_18
Ltmp40:
LBB3_18:
	.loc	26 517 3                        ; /Library/Developer/CommandLineTools/SDKs/MacOSX.sdk/usr/include/c++/v1/__ostream/basic_ostream.h:517:3
	sub	x0, x29, #40
	bl	__ZNSt3__113basic_ostreamIcNS_11char_traitsIcEEE6sentryD1Ev
Ltmp41:
	.loc	26 517 3 is_stmt 0              ; /Library/Developer/CommandLineTools/SDKs/MacOSX.sdk/usr/include/c++/v1/__ostream/basic_ostream.h:517:3
	b	LBB3_16
Ltmp42:
LBB3_19:
Ltmp23:
	.loc	26 522 1 is_stmt 1              ; /Library/Developer/CommandLineTools/SDKs/MacOSX.sdk/usr/include/c++/v1/__ostream/basic_ostream.h:522:1
	stur	x0, [x29, #-48]
	mov	x8, x1
	stur	w8, [x29, #-52]
Ltmp24:
	.loc	26 519 3                        ; /Library/Developer/CommandLineTools/SDKs/MacOSX.sdk/usr/include/c++/v1/__ostream/basic_ostream.h:519:3
	bl	___cxa_end_catch
Ltmp25:
	b	LBB3_20
LBB3_20:
	b	LBB3_21
LBB3_21:
	ldur	x0, [x29, #-48]
	bl	__Unwind_Resume
LBB3_22:
Ltmp26:
	bl	___clang_call_terminate
Ltmp43:
Lfunc_end3:
	.cfi_endproc
	.section	__TEXT,__gcc_except_tab
	.p2align	2, 0x0
GCC_except_table3:
Lexception0:
	.byte	255                             ; @LPStart Encoding = omit
	.byte	155                             ; @TType Encoding = indirect pcrel sdata4
	.uleb128 Lttbase0-Lttbaseref0
Lttbaseref0:
	.byte	1                               ; Call site Encoding = uleb128
	.uleb128 Lcst_end0-Lcst_begin0
Lcst_begin0:
	.uleb128 Ltmp7-Lfunc_begin3             ; >> Call Site 1 <<
	.uleb128 Ltmp8-Ltmp7                    ;   Call between Ltmp7 and Ltmp8
	.uleb128 Ltmp9-Lfunc_begin3             ;     jumps to Ltmp9
	.byte	1                               ;   On action: 1
	.uleb128 Ltmp10-Lfunc_begin3            ; >> Call Site 2 <<
	.uleb128 Ltmp19-Ltmp10                  ;   Call between Ltmp10 and Ltmp19
	.uleb128 Ltmp20-Lfunc_begin3            ;     jumps to Ltmp20
	.byte	1                               ;   On action: 1
	.uleb128 Ltmp19-Lfunc_begin3            ; >> Call Site 3 <<
	.uleb128 Ltmp21-Ltmp19                  ;   Call between Ltmp19 and Ltmp21
	.byte	0                               ;     has no landing pad
	.byte	0                               ;   On action: cleanup
	.uleb128 Ltmp21-Lfunc_begin3            ; >> Call Site 4 <<
	.uleb128 Ltmp22-Ltmp21                  ;   Call between Ltmp21 and Ltmp22
	.uleb128 Ltmp23-Lfunc_begin3            ;     jumps to Ltmp23
	.byte	0                               ;   On action: cleanup
	.uleb128 Ltmp22-Lfunc_begin3            ; >> Call Site 5 <<
	.uleb128 Ltmp24-Ltmp22                  ;   Call between Ltmp22 and Ltmp24
	.byte	0                               ;     has no landing pad
	.byte	0                               ;   On action: cleanup
	.uleb128 Ltmp24-Lfunc_begin3            ; >> Call Site 6 <<
	.uleb128 Ltmp25-Ltmp24                  ;   Call between Ltmp24 and Ltmp25
	.uleb128 Ltmp26-Lfunc_begin3            ;     jumps to Ltmp26
	.byte	1                               ;   On action: 1
	.uleb128 Ltmp25-Lfunc_begin3            ; >> Call Site 7 <<
	.uleb128 Lfunc_end3-Ltmp25              ;   Call between Ltmp25 and Lfunc_end3
	.byte	0                               ;     has no landing pad
	.byte	0                               ;   On action: cleanup
Lcst_end0:
	.byte	1                               ; >> Action Record 1 <<
                                        ;   Catch TypeInfo 1
	.byte	0                               ;   No further actions
	.p2align	2, 0x0
                                        ; >> Catch TypeInfos <<
	.long	0                               ; TypeInfo 1
Lttbase0:
	.p2align	2, 0x0
                                        ; -- End function
	.section	__TEXT,__text,regular,pure_instructions
	.private_extern	__ZNSt3__111char_traitsIcE6lengthB8ne190102EPKc ; -- Begin function _ZNSt3__111char_traitsIcE6lengthB8ne190102EPKc
	.globl	__ZNSt3__111char_traitsIcE6lengthB8ne190102EPKc
	.weak_definition	__ZNSt3__111char_traitsIcE6lengthB8ne190102EPKc
	.p2align	2
__ZNSt3__111char_traitsIcE6lengthB8ne190102EPKc: ; @_ZNSt3__111char_traitsIcE6lengthB8ne190102EPKc
Lfunc_begin4:
	.loc	5 228 0                         ; /Library/Developer/CommandLineTools/SDKs/MacOSX.sdk/usr/include/c++/v1/__string/char_traits.h:228:0
	.cfi_startproc
; %bb.0:
	sub	sp, sp, #32
	stp	x29, x30, [sp, #16]             ; 16-byte Folded Spill
	add	x29, sp, #16
	.cfi_def_cfa w29, 16
	.cfi_offset w30, -8
	.cfi_offset w29, -16
	str	x0, [sp, #8]
Ltmp44:
	.loc	5 229 36 prologue_end           ; /Library/Developer/CommandLineTools/SDKs/MacOSX.sdk/usr/include/c++/v1/__string/char_traits.h:229:36
	ldr	x0, [sp, #8]
	.loc	5 229 12 is_stmt 0              ; /Library/Developer/CommandLineTools/SDKs/MacOSX.sdk/usr/include/c++/v1/__string/char_traits.h:229:12
	bl	__ZNSt3__118__constexpr_strlenB8ne190102IcEEmPKT_
	.loc	5 229 5 epilogue_begin          ; /Library/Developer/CommandLineTools/SDKs/MacOSX.sdk/usr/include/c++/v1/__string/char_traits.h:229:5
	ldp	x29, x30, [sp, #16]             ; 16-byte Folded Reload
	add	sp, sp, #32
	ret
Ltmp45:
Lfunc_end4:
	.cfi_endproc
                                        ; -- End function
	.private_extern	__ZNKSt3__113basic_ostreamIcNS_11char_traitsIcEEE6sentrycvbB8ne190102Ev ; -- Begin function _ZNKSt3__113basic_ostreamIcNS_11char_traitsIcEEE6sentrycvbB8ne190102Ev
	.globl	__ZNKSt3__113basic_ostreamIcNS_11char_traitsIcEEE6sentrycvbB8ne190102Ev
	.weak_definition	__ZNKSt3__113basic_ostreamIcNS_11char_traitsIcEEE6sentrycvbB8ne190102Ev
	.p2align	2
__ZNKSt3__113basic_ostreamIcNS_11char_traitsIcEEE6sentrycvbB8ne190102Ev: ; @_ZNKSt3__113basic_ostreamIcNS_11char_traitsIcEEE6sentrycvbB8ne190102Ev
Lfunc_begin5:
	.loc	26 141 0 is_stmt 1              ; /Library/Developer/CommandLineTools/SDKs/MacOSX.sdk/usr/include/c++/v1/__ostream/basic_ostream.h:141:0
	.cfi_startproc
; %bb.0:
	sub	sp, sp, #16
	.cfi_def_cfa_offset 16
	str	x0, [sp, #8]
	ldr	x8, [sp, #8]
Ltmp47:
	.loc	26 141 65 prologue_end          ; /Library/Developer/CommandLineTools/SDKs/MacOSX.sdk/usr/include/c++/v1/__ostream/basic_ostream.h:141:65
	ldrb	w8, [x8]
	.loc	26 141 58 is_stmt 0             ; /Library/Developer/CommandLineTools/SDKs/MacOSX.sdk/usr/include/c++/v1/__ostream/basic_ostream.h:141:58
	and	w0, w8, #0x1
	.loc	26 141 58 epilogue_begin        ; /Library/Developer/CommandLineTools/SDKs/MacOSX.sdk/usr/include/c++/v1/__ostream/basic_ostream.h:141:58
	add	sp, sp, #16
	ret
Ltmp48:
Lfunc_end5:
	.cfi_endproc
                                        ; -- End function
	.private_extern	__ZNSt3__116__pad_and_outputB8ne190102IcNS_11char_traitsIcEEEENS_19ostreambuf_iteratorIT_T0_EES6_PKS4_S8_S8_RNS_8ios_baseES4_ ; -- Begin function _ZNSt3__116__pad_and_outputB8ne190102IcNS_11char_traitsIcEEEENS_19ostreambuf_iteratorIT_T0_EES6_PKS4_S8_S8_RNS_8ios_baseES4_
	.globl	__ZNSt3__116__pad_and_outputB8ne190102IcNS_11char_traitsIcEEEENS_19ostreambuf_iteratorIT_T0_EES6_PKS4_S8_S8_RNS_8ios_baseES4_
	.weak_definition	__ZNSt3__116__pad_and_outputB8ne190102IcNS_11char_traitsIcEEEENS_19ostreambuf_iteratorIT_T0_EES6_PKS4_S8_S8_RNS_8ios_baseES4_
	.p2align	2
__ZNSt3__116__pad_and_outputB8ne190102IcNS_11char_traitsIcEEEENS_19ostreambuf_iteratorIT_T0_EES6_PKS4_S8_S8_RNS_8ios_baseES4_: ; @_ZNSt3__116__pad_and_outputB8ne190102IcNS_11char_traitsIcEEEENS_19ostreambuf_iteratorIT_T0_EES6_PKS4_S8_S8_RNS_8ios_baseES4_
Lfunc_begin6:
	.file	28 "/Library/Developer/CommandLineTools/SDKs/MacOSX.sdk/usr/include/c++/v1" "locale"
	.loc	28 1274 0 is_stmt 1             ; /Library/Developer/CommandLineTools/SDKs/MacOSX.sdk/usr/include/c++/v1/locale:1274:0
	.cfi_startproc
	.cfi_personality 155, ___gxx_personality_v0
	.cfi_lsda 16, Lexception1
; %bb.0:
	sub	sp, sp, #160
	stp	x29, x30, [sp, #144]            ; 16-byte Folded Spill
	add	x29, sp, #144
	.cfi_def_cfa w29, 16
	.cfi_offset w30, -8
	.cfi_offset w29, -16
	stur	x0, [x29, #-16]
	stur	x1, [x29, #-24]
	stur	x2, [x29, #-32]
	stur	x3, [x29, #-40]
	stur	x4, [x29, #-48]
	sturb	w5, [x29, #-49]
Ltmp52:
	.loc	28 1275 11 prologue_end         ; /Library/Developer/CommandLineTools/SDKs/MacOSX.sdk/usr/include/c++/v1/locale:1275:11
	ldur	x8, [x29, #-16]
Ltmp53:
	.loc	28 1275 7 is_stmt 0             ; /Library/Developer/CommandLineTools/SDKs/MacOSX.sdk/usr/include/c++/v1/locale:1275:7
	cbnz	x8, LBB6_2
	b	LBB6_1
LBB6_1:
Ltmp54:
	.loc	28 1276 12 is_stmt 1            ; /Library/Developer/CommandLineTools/SDKs/MacOSX.sdk/usr/include/c++/v1/locale:1276:12
	ldur	x8, [x29, #-16]
	stur	x8, [x29, #-8]
	.loc	28 1276 5 is_stmt 0             ; /Library/Developer/CommandLineTools/SDKs/MacOSX.sdk/usr/include/c++/v1/locale:1276:5
	b	LBB6_23
Ltmp55:
LBB6_2:
	.loc	28 1277 21 is_stmt 1            ; /Library/Developer/CommandLineTools/SDKs/MacOSX.sdk/usr/include/c++/v1/locale:1277:21
	ldur	x8, [x29, #-40]
	.loc	28 1277 28 is_stmt 0            ; /Library/Developer/CommandLineTools/SDKs/MacOSX.sdk/usr/include/c++/v1/locale:1277:28
	ldur	x9, [x29, #-24]
	.loc	28 1277 26                      ; /Library/Developer/CommandLineTools/SDKs/MacOSX.sdk/usr/include/c++/v1/locale:1277:26
	subs	x8, x8, x9
	.loc	28 1277 14                      ; /Library/Developer/CommandLineTools/SDKs/MacOSX.sdk/usr/include/c++/v1/locale:1277:14
	stur	x8, [x29, #-64]
	.loc	28 1278 21 is_stmt 1            ; /Library/Developer/CommandLineTools/SDKs/MacOSX.sdk/usr/include/c++/v1/locale:1278:21
	ldur	x0, [x29, #-48]
	.loc	28 1278 27 is_stmt 0            ; /Library/Developer/CommandLineTools/SDKs/MacOSX.sdk/usr/include/c++/v1/locale:1278:27
	bl	__ZNKSt3__18ios_base5widthB8ne190102Ev
	.loc	28 1278 14                      ; /Library/Developer/CommandLineTools/SDKs/MacOSX.sdk/usr/include/c++/v1/locale:1278:14
	str	x0, [sp, #72]
Ltmp56:
	.loc	28 1279 7 is_stmt 1             ; /Library/Developer/CommandLineTools/SDKs/MacOSX.sdk/usr/include/c++/v1/locale:1279:7
	ldr	x8, [sp, #72]
	.loc	28 1279 14 is_stmt 0            ; /Library/Developer/CommandLineTools/SDKs/MacOSX.sdk/usr/include/c++/v1/locale:1279:14
	ldur	x9, [x29, #-64]
Ltmp57:
	.loc	28 1279 7                       ; /Library/Developer/CommandLineTools/SDKs/MacOSX.sdk/usr/include/c++/v1/locale:1279:7
	subs	x8, x8, x9
	b.le	LBB6_4
	b	LBB6_3
LBB6_3:
Ltmp58:
	.loc	28 1280 13 is_stmt 1            ; /Library/Developer/CommandLineTools/SDKs/MacOSX.sdk/usr/include/c++/v1/locale:1280:13
	ldur	x9, [x29, #-64]
	.loc	28 1280 10 is_stmt 0            ; /Library/Developer/CommandLineTools/SDKs/MacOSX.sdk/usr/include/c++/v1/locale:1280:10
	ldr	x8, [sp, #72]
	subs	x8, x8, x9
	str	x8, [sp, #72]
	.loc	28 1280 5                       ; /Library/Developer/CommandLineTools/SDKs/MacOSX.sdk/usr/include/c++/v1/locale:1280:5
	b	LBB6_5
LBB6_4:
	.loc	28 1282 10 is_stmt 1            ; /Library/Developer/CommandLineTools/SDKs/MacOSX.sdk/usr/include/c++/v1/locale:1282:10
	str	xzr, [sp, #72]
	b	LBB6_5
Ltmp59:
LBB6_5:
	.loc	28 1283 21                      ; /Library/Developer/CommandLineTools/SDKs/MacOSX.sdk/usr/include/c++/v1/locale:1283:21
	ldur	x8, [x29, #-32]
	.loc	28 1283 28 is_stmt 0            ; /Library/Developer/CommandLineTools/SDKs/MacOSX.sdk/usr/include/c++/v1/locale:1283:28
	ldur	x9, [x29, #-24]
	.loc	28 1283 26                      ; /Library/Developer/CommandLineTools/SDKs/MacOSX.sdk/usr/include/c++/v1/locale:1283:26
	subs	x8, x8, x9
	.loc	28 1283 14                      ; /Library/Developer/CommandLineTools/SDKs/MacOSX.sdk/usr/include/c++/v1/locale:1283:14
	str	x8, [sp, #64]
Ltmp60:
	.loc	28 1284 7 is_stmt 1             ; /Library/Developer/CommandLineTools/SDKs/MacOSX.sdk/usr/include/c++/v1/locale:1284:7
	ldr	x8, [sp, #64]
Ltmp61:
	.loc	28 1284 7 is_stmt 0             ; /Library/Developer/CommandLineTools/SDKs/MacOSX.sdk/usr/include/c++/v1/locale:1284:7
	subs	x8, x8, #0
	b.le	LBB6_9
	b	LBB6_6
LBB6_6:
Ltmp62:
	.loc	28 1285 13 is_stmt 1            ; /Library/Developer/CommandLineTools/SDKs/MacOSX.sdk/usr/include/c++/v1/locale:1285:13
	ldur	x0, [x29, #-16]
	.loc	28 1285 28 is_stmt 0            ; /Library/Developer/CommandLineTools/SDKs/MacOSX.sdk/usr/include/c++/v1/locale:1285:28
	ldur	x1, [x29, #-24]
	.loc	28 1285 34                      ; /Library/Developer/CommandLineTools/SDKs/MacOSX.sdk/usr/include/c++/v1/locale:1285:34
	ldr	x2, [sp, #64]
	.loc	28 1285 22                      ; /Library/Developer/CommandLineTools/SDKs/MacOSX.sdk/usr/include/c++/v1/locale:1285:22
	bl	__ZNSt3__115basic_streambufIcNS_11char_traitsIcEEE5sputnB8ne190102EPKcl
	.loc	28 1285 43                      ; /Library/Developer/CommandLineTools/SDKs/MacOSX.sdk/usr/include/c++/v1/locale:1285:43
	ldr	x8, [sp, #64]
Ltmp63:
	.loc	28 1285 9                       ; /Library/Developer/CommandLineTools/SDKs/MacOSX.sdk/usr/include/c++/v1/locale:1285:9
	subs	x8, x0, x8
	b.eq	LBB6_8
	b	LBB6_7
LBB6_7:
                                        ; kill: def $x8 killed $xzr
Ltmp64:
	.loc	28 1286 19 is_stmt 1            ; /Library/Developer/CommandLineTools/SDKs/MacOSX.sdk/usr/include/c++/v1/locale:1286:19
	stur	xzr, [x29, #-16]
	.loc	28 1287 14                      ; /Library/Developer/CommandLineTools/SDKs/MacOSX.sdk/usr/include/c++/v1/locale:1287:14
	ldur	x8, [x29, #-16]
	stur	x8, [x29, #-8]
	.loc	28 1287 7 is_stmt 0             ; /Library/Developer/CommandLineTools/SDKs/MacOSX.sdk/usr/include/c++/v1/locale:1287:7
	b	LBB6_23
Ltmp65:
LBB6_8:
	.loc	28 1289 3 is_stmt 1             ; /Library/Developer/CommandLineTools/SDKs/MacOSX.sdk/usr/include/c++/v1/locale:1289:3
	b	LBB6_9
Ltmp66:
LBB6_9:
	.loc	28 1290 7                       ; /Library/Developer/CommandLineTools/SDKs/MacOSX.sdk/usr/include/c++/v1/locale:1290:7
	ldr	x8, [sp, #72]
Ltmp67:
	.loc	28 1290 7 is_stmt 0             ; /Library/Developer/CommandLineTools/SDKs/MacOSX.sdk/usr/include/c++/v1/locale:1290:7
	subs	x8, x8, #0
	b.le	LBB6_18
	b	LBB6_10
LBB6_10:
Ltmp68:
	.loc	28 1291 40 is_stmt 1            ; /Library/Developer/CommandLineTools/SDKs/MacOSX.sdk/usr/include/c++/v1/locale:1291:40
	ldr	x1, [sp, #72]
	.loc	28 1291 46 is_stmt 0            ; /Library/Developer/CommandLineTools/SDKs/MacOSX.sdk/usr/include/c++/v1/locale:1291:46
	ldursb	w2, [x29, #-49]
	add	x0, sp, #40
	str	x0, [sp]                        ; 8-byte Folded Spill
	.loc	28 1291 35                      ; /Library/Developer/CommandLineTools/SDKs/MacOSX.sdk/usr/include/c++/v1/locale:1291:35
	bl	__ZNSt3__112basic_stringIcNS_11char_traitsIcEENS_9allocatorIcEEEC1B8ne190102Emc
	ldr	x0, [sp]                        ; 8-byte Folded Reload
Ltmp69:
	.loc	28 1292 13 is_stmt 1            ; /Library/Developer/CommandLineTools/SDKs/MacOSX.sdk/usr/include/c++/v1/locale:1292:13
	ldur	x8, [x29, #-16]
	str	x8, [sp, #8]                    ; 8-byte Folded Spill
	.loc	28 1292 33 is_stmt 0            ; /Library/Developer/CommandLineTools/SDKs/MacOSX.sdk/usr/include/c++/v1/locale:1292:33
	bl	__ZNKSt3__112basic_stringIcNS_11char_traitsIcEENS_9allocatorIcEEE4dataB8ne190102Ev
	mov	x1, x0
	ldr	x0, [sp, #8]                    ; 8-byte Folded Reload
	.loc	28 1292 41                      ; /Library/Developer/CommandLineTools/SDKs/MacOSX.sdk/usr/include/c++/v1/locale:1292:41
	ldr	x2, [sp, #72]
Ltmp49:
	.loc	28 1292 22                      ; /Library/Developer/CommandLineTools/SDKs/MacOSX.sdk/usr/include/c++/v1/locale:1292:22
	bl	__ZNSt3__115basic_streambufIcNS_11char_traitsIcEEE5sputnB8ne190102EPKcl
	str	x0, [sp, #16]                   ; 8-byte Folded Spill
Ltmp50:
	b	LBB6_11
LBB6_11:
	.loc	28 0 22                         ; /Library/Developer/CommandLineTools/SDKs/MacOSX.sdk/usr/include/c++/v1/locale:0:22
	ldr	x8, [sp, #16]                   ; 8-byte Folded Reload
	.loc	28 1292 50                      ; /Library/Developer/CommandLineTools/SDKs/MacOSX.sdk/usr/include/c++/v1/locale:1292:50
	ldr	x9, [sp, #72]
Ltmp70:
	.loc	28 1292 9                       ; /Library/Developer/CommandLineTools/SDKs/MacOSX.sdk/usr/include/c++/v1/locale:1292:9
	subs	x8, x8, x9
	b.eq	LBB6_14
	b	LBB6_12
LBB6_12:
                                        ; kill: def $x8 killed $xzr
Ltmp71:
	.loc	28 1293 19 is_stmt 1            ; /Library/Developer/CommandLineTools/SDKs/MacOSX.sdk/usr/include/c++/v1/locale:1293:19
	stur	xzr, [x29, #-16]
	.loc	28 1294 14                      ; /Library/Developer/CommandLineTools/SDKs/MacOSX.sdk/usr/include/c++/v1/locale:1294:14
	ldur	x8, [x29, #-16]
	stur	x8, [x29, #-8]
	mov	w8, #1                          ; =0x1
	str	w8, [sp, #24]
	.loc	28 1294 7 is_stmt 0             ; /Library/Developer/CommandLineTools/SDKs/MacOSX.sdk/usr/include/c++/v1/locale:1294:7
	b	LBB6_15
Ltmp72:
LBB6_13:
Ltmp51:
	.loc	28 1306 1 is_stmt 1             ; /Library/Developer/CommandLineTools/SDKs/MacOSX.sdk/usr/include/c++/v1/locale:1306:1
	str	x0, [sp, #32]
	mov	x8, x1
	str	w8, [sp, #28]
Ltmp73:
	.loc	28 1296 3                       ; /Library/Developer/CommandLineTools/SDKs/MacOSX.sdk/usr/include/c++/v1/locale:1296:3
	add	x0, sp, #40
	bl	__ZNSt3__112basic_stringIcNS_11char_traitsIcEENS_9allocatorIcEEED1Ev
	b	LBB6_24
LBB6_14:
	str	wzr, [sp, #24]
	b	LBB6_15
LBB6_15:
	add	x0, sp, #40
	bl	__ZNSt3__112basic_stringIcNS_11char_traitsIcEENS_9allocatorIcEEED1Ev
	ldr	w8, [sp, #24]
	cbz	w8, LBB6_17
	b	LBB6_16
LBB6_16:
	.loc	28 0 3 is_stmt 0                ; /Library/Developer/CommandLineTools/SDKs/MacOSX.sdk/usr/include/c++/v1/locale:0:3
	b	LBB6_23
LBB6_17:
Ltmp74:
	.loc	28 1296 3                       ; /Library/Developer/CommandLineTools/SDKs/MacOSX.sdk/usr/include/c++/v1/locale:1296:3
	b	LBB6_18
Ltmp75:
LBB6_18:
	.loc	28 1297 10 is_stmt 1            ; /Library/Developer/CommandLineTools/SDKs/MacOSX.sdk/usr/include/c++/v1/locale:1297:10
	ldur	x8, [x29, #-40]
	.loc	28 1297 17 is_stmt 0            ; /Library/Developer/CommandLineTools/SDKs/MacOSX.sdk/usr/include/c++/v1/locale:1297:17
	ldur	x9, [x29, #-32]
	.loc	28 1297 15                      ; /Library/Developer/CommandLineTools/SDKs/MacOSX.sdk/usr/include/c++/v1/locale:1297:15
	subs	x8, x8, x9
	.loc	28 1297 8                       ; /Library/Developer/CommandLineTools/SDKs/MacOSX.sdk/usr/include/c++/v1/locale:1297:8
	str	x8, [sp, #64]
Ltmp76:
	.loc	28 1298 7 is_stmt 1             ; /Library/Developer/CommandLineTools/SDKs/MacOSX.sdk/usr/include/c++/v1/locale:1298:7
	ldr	x8, [sp, #64]
Ltmp77:
	.loc	28 1298 7 is_stmt 0             ; /Library/Developer/CommandLineTools/SDKs/MacOSX.sdk/usr/include/c++/v1/locale:1298:7
	subs	x8, x8, #0
	b.le	LBB6_22
	b	LBB6_19
LBB6_19:
Ltmp78:
	.loc	28 1299 13 is_stmt 1            ; /Library/Developer/CommandLineTools/SDKs/MacOSX.sdk/usr/include/c++/v1/locale:1299:13
	ldur	x0, [x29, #-16]
	.loc	28 1299 28 is_stmt 0            ; /Library/Developer/CommandLineTools/SDKs/MacOSX.sdk/usr/include/c++/v1/locale:1299:28
	ldur	x1, [x29, #-32]
	.loc	28 1299 34                      ; /Library/Developer/CommandLineTools/SDKs/MacOSX.sdk/usr/include/c++/v1/locale:1299:34
	ldr	x2, [sp, #64]
	.loc	28 1299 22                      ; /Library/Developer/CommandLineTools/SDKs/MacOSX.sdk/usr/include/c++/v1/locale:1299:22
	bl	__ZNSt3__115basic_streambufIcNS_11char_traitsIcEEE5sputnB8ne190102EPKcl
	.loc	28 1299 43                      ; /Library/Developer/CommandLineTools/SDKs/MacOSX.sdk/usr/include/c++/v1/locale:1299:43
	ldr	x8, [sp, #64]
Ltmp79:
	.loc	28 1299 9                       ; /Library/Developer/CommandLineTools/SDKs/MacOSX.sdk/usr/include/c++/v1/locale:1299:9
	subs	x8, x0, x8
	b.eq	LBB6_21
	b	LBB6_20
LBB6_20:
                                        ; kill: def $x8 killed $xzr
Ltmp80:
	.loc	28 1300 19 is_stmt 1            ; /Library/Developer/CommandLineTools/SDKs/MacOSX.sdk/usr/include/c++/v1/locale:1300:19
	stur	xzr, [x29, #-16]
	.loc	28 1301 14                      ; /Library/Developer/CommandLineTools/SDKs/MacOSX.sdk/usr/include/c++/v1/locale:1301:14
	ldur	x8, [x29, #-16]
	stur	x8, [x29, #-8]
	.loc	28 1301 7 is_stmt 0             ; /Library/Developer/CommandLineTools/SDKs/MacOSX.sdk/usr/include/c++/v1/locale:1301:7
	b	LBB6_23
Ltmp81:
LBB6_21:
	.loc	28 1303 3 is_stmt 1             ; /Library/Developer/CommandLineTools/SDKs/MacOSX.sdk/usr/include/c++/v1/locale:1303:3
	b	LBB6_22
Ltmp82:
LBB6_22:
	.loc	28 1304 3                       ; /Library/Developer/CommandLineTools/SDKs/MacOSX.sdk/usr/include/c++/v1/locale:1304:3
	ldur	x0, [x29, #-48]
	.loc	28 1304 9 is_stmt 0             ; /Library/Developer/CommandLineTools/SDKs/MacOSX.sdk/usr/include/c++/v1/locale:1304:9
	mov	x1, #0                          ; =0x0
	bl	__ZNSt3__18ios_base5widthB8ne190102El
	.loc	28 1305 10 is_stmt 1            ; /Library/Developer/CommandLineTools/SDKs/MacOSX.sdk/usr/include/c++/v1/locale:1305:10
	ldur	x8, [x29, #-16]
	stur	x8, [x29, #-8]
	.loc	28 1305 3 is_stmt 0             ; /Library/Developer/CommandLineTools/SDKs/MacOSX.sdk/usr/include/c++/v1/locale:1305:3
	b	LBB6_23
LBB6_23:
	.loc	28 1306 1 is_stmt 1             ; /Library/Developer/CommandLineTools/SDKs/MacOSX.sdk/usr/include/c++/v1/locale:1306:1
	ldur	x0, [x29, #-8]
	.loc	28 1306 1 epilogue_begin is_stmt 0 ; /Library/Developer/CommandLineTools/SDKs/MacOSX.sdk/usr/include/c++/v1/locale:1306:1
	ldp	x29, x30, [sp, #144]            ; 16-byte Folded Reload
	add	sp, sp, #160
	ret
LBB6_24:
Ltmp83:
	.loc	28 1296 3 is_stmt 1             ; /Library/Developer/CommandLineTools/SDKs/MacOSX.sdk/usr/include/c++/v1/locale:1296:3
	ldr	x0, [sp, #32]
	bl	__Unwind_Resume
Ltmp84:
; %bb.25:
Lfunc_end6:
	.cfi_endproc
	.section	__TEXT,__gcc_except_tab
	.p2align	2, 0x0
GCC_except_table6:
Lexception1:
	.byte	255                             ; @LPStart Encoding = omit
	.byte	255                             ; @TType Encoding = omit
	.byte	1                               ; Call site Encoding = uleb128
	.uleb128 Lcst_end1-Lcst_begin1
Lcst_begin1:
	.uleb128 Lfunc_begin6-Lfunc_begin6      ; >> Call Site 1 <<
	.uleb128 Ltmp49-Lfunc_begin6            ;   Call between Lfunc_begin6 and Ltmp49
	.byte	0                               ;     has no landing pad
	.byte	0                               ;   On action: cleanup
	.uleb128 Ltmp49-Lfunc_begin6            ; >> Call Site 2 <<
	.uleb128 Ltmp50-Ltmp49                  ;   Call between Ltmp49 and Ltmp50
	.uleb128 Ltmp51-Lfunc_begin6            ;     jumps to Ltmp51
	.byte	0                               ;   On action: cleanup
	.uleb128 Ltmp50-Lfunc_begin6            ; >> Call Site 3 <<
	.uleb128 Lfunc_end6-Ltmp50              ;   Call between Ltmp50 and Lfunc_end6
	.byte	0                               ;     has no landing pad
	.byte	0                               ;   On action: cleanup
Lcst_end1:
	.p2align	2, 0x0
                                        ; -- End function
	.section	__TEXT,__text,regular,pure_instructions
	.private_extern	__ZNSt3__119ostreambuf_iteratorIcNS_11char_traitsIcEEEC1B8ne190102ERNS_13basic_ostreamIcS2_EE ; -- Begin function _ZNSt3__119ostreambuf_iteratorIcNS_11char_traitsIcEEEC1B8ne190102ERNS_13basic_ostreamIcS2_EE
	.globl	__ZNSt3__119ostreambuf_iteratorIcNS_11char_traitsIcEEEC1B8ne190102ERNS_13basic_ostreamIcS2_EE
	.weak_def_can_be_hidden	__ZNSt3__119ostreambuf_iteratorIcNS_11char_traitsIcEEEC1B8ne190102ERNS_13basic_ostreamIcS2_EE
	.p2align	2
__ZNSt3__119ostreambuf_iteratorIcNS_11char_traitsIcEEEC1B8ne190102ERNS_13basic_ostreamIcS2_EE: ; @_ZNSt3__119ostreambuf_iteratorIcNS_11char_traitsIcEEEC1B8ne190102ERNS_13basic_ostreamIcS2_EE
Lfunc_begin7:
	.loc	25 53 0                         ; /Library/Developer/CommandLineTools/SDKs/MacOSX.sdk/usr/include/c++/v1/__iterator/ostreambuf_iterator.h:53:0
	.cfi_startproc
; %bb.0:
	sub	sp, sp, #48
	stp	x29, x30, [sp, #32]             ; 16-byte Folded Spill
	add	x29, sp, #32
	.cfi_def_cfa w29, 16
	.cfi_offset w30, -8
	.cfi_offset w29, -16
	stur	x0, [x29, #-8]
	str	x1, [sp, #16]
	ldur	x0, [x29, #-8]
	str	x0, [sp, #8]                    ; 8-byte Folded Spill
Ltmp85:
	.loc	25 53 97 prologue_end           ; /Library/Developer/CommandLineTools/SDKs/MacOSX.sdk/usr/include/c++/v1/__iterator/ostreambuf_iterator.h:53:97
	ldr	x1, [sp, #16]
	bl	__ZNSt3__119ostreambuf_iteratorIcNS_11char_traitsIcEEEC2B8ne190102ERNS_13basic_ostreamIcS2_EE
	ldr	x0, [sp, #8]                    ; 8-byte Folded Reload
	.loc	25 53 98 epilogue_begin is_stmt 0 ; /Library/Developer/CommandLineTools/SDKs/MacOSX.sdk/usr/include/c++/v1/__iterator/ostreambuf_iterator.h:53:98
	ldp	x29, x30, [sp, #32]             ; 16-byte Folded Reload
	add	sp, sp, #48
	ret
Ltmp86:
Lfunc_end7:
	.cfi_endproc
                                        ; -- End function
	.private_extern	__ZNKSt3__18ios_base5flagsB8ne190102Ev ; -- Begin function _ZNKSt3__18ios_base5flagsB8ne190102Ev
	.globl	__ZNKSt3__18ios_base5flagsB8ne190102Ev
	.weak_definition	__ZNKSt3__18ios_base5flagsB8ne190102Ev
	.p2align	2
__ZNKSt3__18ios_base5flagsB8ne190102Ev: ; @_ZNKSt3__18ios_base5flagsB8ne190102Ev
Lfunc_begin8:
	.loc	1 458 0 is_stmt 1               ; /Library/Developer/CommandLineTools/SDKs/MacOSX.sdk/usr/include/c++/v1/ios:458:0
	.cfi_startproc
; %bb.0:
	sub	sp, sp, #16
	.cfi_def_cfa_offset 16
	str	x0, [sp, #8]
	ldr	x8, [sp, #8]
Ltmp88:
	.loc	1 458 82 prologue_end           ; /Library/Developer/CommandLineTools/SDKs/MacOSX.sdk/usr/include/c++/v1/ios:458:82
	ldr	w0, [x8, #8]
	.loc	1 458 75 epilogue_begin is_stmt 0 ; /Library/Developer/CommandLineTools/SDKs/MacOSX.sdk/usr/include/c++/v1/ios:458:75
	add	sp, sp, #16
	ret
Ltmp89:
Lfunc_end8:
	.cfi_endproc
                                        ; -- End function
	.private_extern	__ZNKSt3__19basic_iosIcNS_11char_traitsIcEEE4fillB8ne190102Ev ; -- Begin function _ZNKSt3__19basic_iosIcNS_11char_traitsIcEEE4fillB8ne190102Ev
	.globl	__ZNKSt3__19basic_iosIcNS_11char_traitsIcEEE4fillB8ne190102Ev
	.weak_definition	__ZNKSt3__19basic_iosIcNS_11char_traitsIcEEE4fillB8ne190102Ev
	.p2align	2
__ZNKSt3__19basic_iosIcNS_11char_traitsIcEEE4fillB8ne190102Ev: ; @_ZNKSt3__19basic_iosIcNS_11char_traitsIcEEE4fillB8ne190102Ev
Lfunc_begin9:
	.loc	1 693 0 is_stmt 1               ; /Library/Developer/CommandLineTools/SDKs/MacOSX.sdk/usr/include/c++/v1/ios:693:0
	.cfi_startproc
; %bb.0:
	sub	sp, sp, #32
	stp	x29, x30, [sp, #16]             ; 16-byte Folded Spill
	add	x29, sp, #16
	.cfi_def_cfa w29, 16
	.cfi_offset w30, -8
	.cfi_offset w29, -16
	str	x0, [sp, #8]
	ldr	x8, [sp, #8]
	str	x8, [sp]                        ; 8-byte Folded Spill
Ltmp90:
	.loc	1 694 8 prologue_end            ; /Library/Developer/CommandLineTools/SDKs/MacOSX.sdk/usr/include/c++/v1/ios:694:8
	add	x0, x8, #144
	.loc	1 694 16 is_stmt 0              ; /Library/Developer/CommandLineTools/SDKs/MacOSX.sdk/usr/include/c++/v1/ios:694:16
	bl	__ZNKSt3__118_SentinelValueFillINS_11char_traitsIcEEE8__is_setB8ne190102Ev
Ltmp91:
	.loc	1 694 7                         ; /Library/Developer/CommandLineTools/SDKs/MacOSX.sdk/usr/include/c++/v1/ios:694:7
	tbnz	w0, #0, LBB9_2
	b	LBB9_1
LBB9_1:
	.loc	1 0 7                           ; /Library/Developer/CommandLineTools/SDKs/MacOSX.sdk/usr/include/c++/v1/ios:0:7
	ldr	x0, [sp]                        ; 8-byte Folded Reload
	mov	w1, #32                         ; =0x20
Ltmp92:
	.loc	1 695 15 is_stmt 1              ; /Library/Developer/CommandLineTools/SDKs/MacOSX.sdk/usr/include/c++/v1/ios:695:15
	bl	__ZNKSt3__19basic_iosIcNS_11char_traitsIcEEE5widenB8ne190102Ec
	ldr	x8, [sp]                        ; 8-byte Folded Reload
	mov	x1, x0
	.loc	1 695 5 is_stmt 0               ; /Library/Developer/CommandLineTools/SDKs/MacOSX.sdk/usr/include/c++/v1/ios:695:5
	add	x0, x8, #144
	.loc	1 695 13                        ; /Library/Developer/CommandLineTools/SDKs/MacOSX.sdk/usr/include/c++/v1/ios:695:13
	bl	__ZNSt3__118_SentinelValueFillINS_11char_traitsIcEEEaSB8ne190102Ei
	.loc	1 695 5                         ; /Library/Developer/CommandLineTools/SDKs/MacOSX.sdk/usr/include/c++/v1/ios:695:5
	b	LBB9_2
Ltmp93:
LBB9_2:
	.loc	1 0 5                           ; /Library/Developer/CommandLineTools/SDKs/MacOSX.sdk/usr/include/c++/v1/ios:0:5
	ldr	x8, [sp]                        ; 8-byte Folded Reload
	.loc	1 696 10 is_stmt 1              ; /Library/Developer/CommandLineTools/SDKs/MacOSX.sdk/usr/include/c++/v1/ios:696:10
	add	x0, x8, #144
	.loc	1 696 18 is_stmt 0              ; /Library/Developer/CommandLineTools/SDKs/MacOSX.sdk/usr/include/c++/v1/ios:696:18
	bl	__ZNKSt3__118_SentinelValueFillINS_11char_traitsIcEEE5__getB8ne190102Ev
	.loc	1 696 3                         ; /Library/Developer/CommandLineTools/SDKs/MacOSX.sdk/usr/include/c++/v1/ios:696:3
	sxtb	w0, w0
	.loc	1 696 3 epilogue_begin          ; /Library/Developer/CommandLineTools/SDKs/MacOSX.sdk/usr/include/c++/v1/ios:696:3
	ldp	x29, x30, [sp, #16]             ; 16-byte Folded Reload
	add	sp, sp, #32
	ret
Ltmp94:
Lfunc_end9:
	.cfi_endproc
                                        ; -- End function
	.private_extern	__ZNKSt3__119ostreambuf_iteratorIcNS_11char_traitsIcEEE6failedB8ne190102Ev ; -- Begin function _ZNKSt3__119ostreambuf_iteratorIcNS_11char_traitsIcEEE6failedB8ne190102Ev
	.globl	__ZNKSt3__119ostreambuf_iteratorIcNS_11char_traitsIcEEE6failedB8ne190102Ev
	.weak_definition	__ZNKSt3__119ostreambuf_iteratorIcNS_11char_traitsIcEEE6failedB8ne190102Ev
	.p2align	2
__ZNKSt3__119ostreambuf_iteratorIcNS_11char_traitsIcEEE6failedB8ne190102Ev: ; @_ZNKSt3__119ostreambuf_iteratorIcNS_11char_traitsIcEEE6failedB8ne190102Ev
Lfunc_begin10:
	.loc	25 63 0 is_stmt 1               ; /Library/Developer/CommandLineTools/SDKs/MacOSX.sdk/usr/include/c++/v1/__iterator/ostreambuf_iterator.h:63:0
	.cfi_startproc
; %bb.0:
	sub	sp, sp, #16
	.cfi_def_cfa_offset 16
	str	x0, [sp, #8]
	ldr	x8, [sp, #8]
Ltmp96:
	.loc	25 63 64 prologue_end           ; /Library/Developer/CommandLineTools/SDKs/MacOSX.sdk/usr/include/c++/v1/__iterator/ostreambuf_iterator.h:63:64
	ldr	x8, [x8]
	.loc	25 63 72 is_stmt 0              ; /Library/Developer/CommandLineTools/SDKs/MacOSX.sdk/usr/include/c++/v1/__iterator/ostreambuf_iterator.h:63:72
	subs	x8, x8, #0
	cset	w0, eq
	.loc	25 63 57 epilogue_begin         ; /Library/Developer/CommandLineTools/SDKs/MacOSX.sdk/usr/include/c++/v1/__iterator/ostreambuf_iterator.h:63:57
	add	sp, sp, #16
	ret
Ltmp97:
Lfunc_end10:
	.cfi_endproc
                                        ; -- End function
	.private_extern	__ZNSt3__19basic_iosIcNS_11char_traitsIcEEE8setstateB8ne190102Ej ; -- Begin function _ZNSt3__19basic_iosIcNS_11char_traitsIcEEE8setstateB8ne190102Ej
	.globl	__ZNSt3__19basic_iosIcNS_11char_traitsIcEEE8setstateB8ne190102Ej
	.weak_definition	__ZNSt3__19basic_iosIcNS_11char_traitsIcEEE8setstateB8ne190102Ej
	.p2align	2
__ZNSt3__19basic_iosIcNS_11char_traitsIcEEE8setstateB8ne190102Ej: ; @_ZNSt3__19basic_iosIcNS_11char_traitsIcEEE8setstateB8ne190102Ej
Lfunc_begin11:
	.loc	1 579 0 is_stmt 1               ; /Library/Developer/CommandLineTools/SDKs/MacOSX.sdk/usr/include/c++/v1/ios:579:0
	.cfi_startproc
; %bb.0:
	sub	sp, sp, #32
	stp	x29, x30, [sp, #16]             ; 16-byte Folded Spill
	add	x29, sp, #16
	.cfi_def_cfa w29, 16
	.cfi_offset w30, -8
	.cfi_offset w29, -16
	str	x0, [sp, #8]
	str	w1, [sp, #4]
	ldr	x0, [sp, #8]
Ltmp98:
	.loc	1 579 77 prologue_end           ; /Library/Developer/CommandLineTools/SDKs/MacOSX.sdk/usr/include/c++/v1/ios:579:77
	ldr	w1, [sp, #4]
	.loc	1 579 68 is_stmt 0              ; /Library/Developer/CommandLineTools/SDKs/MacOSX.sdk/usr/include/c++/v1/ios:579:68
	bl	__ZNSt3__18ios_base8setstateB8ne190102Ej
	.loc	1 579 87 epilogue_begin         ; /Library/Developer/CommandLineTools/SDKs/MacOSX.sdk/usr/include/c++/v1/ios:579:87
	ldp	x29, x30, [sp, #16]             ; 16-byte Folded Reload
	add	sp, sp, #32
	ret
Ltmp99:
Lfunc_end11:
	.cfi_endproc
                                        ; -- End function
	.private_extern	___clang_call_terminate ; -- Begin function __clang_call_terminate
	.globl	___clang_call_terminate
	.weak_definition	___clang_call_terminate
	.p2align	2
___clang_call_terminate:                ; @__clang_call_terminate
Lfunc_begin12:
	.cfi_startproc
; %bb.0:
	stp	x29, x30, [sp, #-16]!           ; 16-byte Folded Spill
	mov	x29, sp
	.cfi_def_cfa w29, 16
	.cfi_offset w30, -8
	.cfi_offset w29, -16
	bl	___cxa_begin_catch
	bl	__ZSt9terminatev
Lfunc_end12:
	.cfi_endproc
                                        ; -- End function
	.private_extern	__ZNKSt3__18ios_base5widthB8ne190102Ev ; -- Begin function _ZNKSt3__18ios_base5widthB8ne190102Ev
	.globl	__ZNKSt3__18ios_base5widthB8ne190102Ev
	.weak_definition	__ZNKSt3__18ios_base5widthB8ne190102Ev
	.p2align	2
__ZNKSt3__18ios_base5widthB8ne190102Ev: ; @_ZNKSt3__18ios_base5widthB8ne190102Ev
Lfunc_begin13:
	.loc	1 493 0 is_stmt 1               ; /Library/Developer/CommandLineTools/SDKs/MacOSX.sdk/usr/include/c++/v1/ios:493:0
	.cfi_startproc
; %bb.0:
	sub	sp, sp, #16
	.cfi_def_cfa_offset 16
	str	x0, [sp, #8]
	ldr	x8, [sp, #8]
Ltmp101:
	.loc	1 493 74 prologue_end           ; /Library/Developer/CommandLineTools/SDKs/MacOSX.sdk/usr/include/c++/v1/ios:493:74
	ldr	x0, [x8, #24]
	.loc	1 493 67 epilogue_begin is_stmt 0 ; /Library/Developer/CommandLineTools/SDKs/MacOSX.sdk/usr/include/c++/v1/ios:493:67
	add	sp, sp, #16
	ret
Ltmp102:
Lfunc_end13:
	.cfi_endproc
                                        ; -- End function
	.private_extern	__ZNSt3__115basic_streambufIcNS_11char_traitsIcEEE5sputnB8ne190102EPKcl ; -- Begin function _ZNSt3__115basic_streambufIcNS_11char_traitsIcEEE5sputnB8ne190102EPKcl
	.globl	__ZNSt3__115basic_streambufIcNS_11char_traitsIcEEE5sputnB8ne190102EPKcl
	.weak_definition	__ZNSt3__115basic_streambufIcNS_11char_traitsIcEEE5sputnB8ne190102EPKcl
	.p2align	2
__ZNSt3__115basic_streambufIcNS_11char_traitsIcEEE5sputnB8ne190102EPKcl: ; @_ZNSt3__115basic_streambufIcNS_11char_traitsIcEEE5sputnB8ne190102EPKcl
Lfunc_begin14:
	.loc	21 221 0 is_stmt 1              ; /Library/Developer/CommandLineTools/SDKs/MacOSX.sdk/usr/include/c++/v1/streambuf:221:0
	.cfi_startproc
; %bb.0:
	sub	sp, sp, #48
	stp	x29, x30, [sp, #32]             ; 16-byte Folded Spill
	add	x29, sp, #32
	.cfi_def_cfa w29, 16
	.cfi_offset w30, -8
	.cfi_offset w29, -16
	stur	x0, [x29, #-8]
	str	x1, [sp, #16]
	str	x2, [sp, #8]
	ldur	x0, [x29, #-8]
Ltmp103:
	.loc	21 222 19 prologue_end          ; /Library/Developer/CommandLineTools/SDKs/MacOSX.sdk/usr/include/c++/v1/streambuf:222:19
	ldr	x1, [sp, #16]
	.loc	21 222 24 is_stmt 0             ; /Library/Developer/CommandLineTools/SDKs/MacOSX.sdk/usr/include/c++/v1/streambuf:222:24
	ldr	x2, [sp, #8]
	.loc	21 222 12                       ; /Library/Developer/CommandLineTools/SDKs/MacOSX.sdk/usr/include/c++/v1/streambuf:222:12
	ldr	x8, [x0]
	ldr	x8, [x8, #96]
	blr	x8
	.loc	21 222 5 epilogue_begin         ; /Library/Developer/CommandLineTools/SDKs/MacOSX.sdk/usr/include/c++/v1/streambuf:222:5
	ldp	x29, x30, [sp, #32]             ; 16-byte Folded Reload
	add	sp, sp, #48
	ret
Ltmp104:
Lfunc_end14:
	.cfi_endproc
                                        ; -- End function
	.private_extern	__ZNSt3__112basic_stringIcNS_11char_traitsIcEENS_9allocatorIcEEEC1B8ne190102Emc ; -- Begin function _ZNSt3__112basic_stringIcNS_11char_traitsIcEENS_9allocatorIcEEEC1B8ne190102Emc
	.globl	__ZNSt3__112basic_stringIcNS_11char_traitsIcEENS_9allocatorIcEEEC1B8ne190102Emc
	.weak_def_can_be_hidden	__ZNSt3__112basic_stringIcNS_11char_traitsIcEENS_9allocatorIcEEEC1B8ne190102Emc
	.p2align	2
__ZNSt3__112basic_stringIcNS_11char_traitsIcEENS_9allocatorIcEEEC1B8ne190102Emc: ; @_ZNSt3__112basic_stringIcNS_11char_traitsIcEENS_9allocatorIcEEEC1B8ne190102Emc
Lfunc_begin15:
	.loc	8 1090 0 is_stmt 1              ; /Library/Developer/CommandLineTools/SDKs/MacOSX.sdk/usr/include/c++/v1/string:1090:0
	.cfi_startproc
; %bb.0:
	sub	sp, sp, #48
	stp	x29, x30, [sp, #32]             ; 16-byte Folded Spill
	add	x29, sp, #32
	.cfi_def_cfa w29, 16
	.cfi_offset w30, -8
	.cfi_offset w29, -16
	stur	x0, [x29, #-8]
	str	x1, [sp, #16]
	strb	w2, [sp, #15]
	ldur	x0, [x29, #-8]
	str	x0, [sp]                        ; 8-byte Folded Spill
Ltmp105:
	.loc	8 1090 58 prologue_end          ; /Library/Developer/CommandLineTools/SDKs/MacOSX.sdk/usr/include/c++/v1/string:1090:58
	ldr	x1, [sp, #16]
	ldrsb	w2, [sp, #15]
	bl	__ZNSt3__112basic_stringIcNS_11char_traitsIcEENS_9allocatorIcEEEC2B8ne190102Emc
	ldr	x0, [sp]                        ; 8-byte Folded Reload
	.loc	8 1092 3 epilogue_begin         ; /Library/Developer/CommandLineTools/SDKs/MacOSX.sdk/usr/include/c++/v1/string:1092:3
	ldp	x29, x30, [sp, #32]             ; 16-byte Folded Reload
	add	sp, sp, #48
	ret
Ltmp106:
Lfunc_end15:
	.cfi_endproc
                                        ; -- End function
	.private_extern	__ZNKSt3__112basic_stringIcNS_11char_traitsIcEENS_9allocatorIcEEE4dataB8ne190102Ev ; -- Begin function _ZNKSt3__112basic_stringIcNS_11char_traitsIcEENS_9allocatorIcEEE4dataB8ne190102Ev
	.globl	__ZNKSt3__112basic_stringIcNS_11char_traitsIcEENS_9allocatorIcEEE4dataB8ne190102Ev
	.weak_definition	__ZNKSt3__112basic_stringIcNS_11char_traitsIcEENS_9allocatorIcEEE4dataB8ne190102Ev
	.p2align	2
__ZNKSt3__112basic_stringIcNS_11char_traitsIcEENS_9allocatorIcEEE4dataB8ne190102Ev: ; @_ZNKSt3__112basic_stringIcNS_11char_traitsIcEENS_9allocatorIcEEE4dataB8ne190102Ev
Lfunc_begin16:
	.loc	8 1704 0                        ; /Library/Developer/CommandLineTools/SDKs/MacOSX.sdk/usr/include/c++/v1/string:1704:0
	.cfi_startproc
; %bb.0:
	sub	sp, sp, #32
	stp	x29, x30, [sp, #16]             ; 16-byte Folded Spill
	add	x29, sp, #16
	.cfi_def_cfa w29, 16
	.cfi_offset w30, -8
	.cfi_offset w29, -16
	str	x0, [sp, #8]
	ldr	x0, [sp, #8]
Ltmp107:
	.loc	8 1705 30 prologue_end          ; /Library/Developer/CommandLineTools/SDKs/MacOSX.sdk/usr/include/c++/v1/string:1705:30
	bl	__ZNKSt3__112basic_stringIcNS_11char_traitsIcEENS_9allocatorIcEEE13__get_pointerB8ne190102Ev
	.loc	8 1705 12 is_stmt 0             ; /Library/Developer/CommandLineTools/SDKs/MacOSX.sdk/usr/include/c++/v1/string:1705:12
	bl	__ZNSt3__112__to_addressB8ne190102IKcEEPT_S3_
	.loc	8 1705 5 epilogue_begin         ; /Library/Developer/CommandLineTools/SDKs/MacOSX.sdk/usr/include/c++/v1/string:1705:5
	ldp	x29, x30, [sp, #16]             ; 16-byte Folded Reload
	add	sp, sp, #32
	ret
Ltmp108:
Lfunc_end16:
	.cfi_endproc
                                        ; -- End function
	.private_extern	__ZNSt3__18ios_base5widthB8ne190102El ; -- Begin function _ZNSt3__18ios_base5widthB8ne190102El
	.globl	__ZNSt3__18ios_base5widthB8ne190102El
	.weak_definition	__ZNSt3__18ios_base5widthB8ne190102El
	.p2align	2
__ZNSt3__18ios_base5widthB8ne190102El:  ; @_ZNSt3__18ios_base5widthB8ne190102El
Lfunc_begin17:
	.loc	1 495 0 is_stmt 1               ; /Library/Developer/CommandLineTools/SDKs/MacOSX.sdk/usr/include/c++/v1/ios:495:0
	.cfi_startproc
; %bb.0:
	sub	sp, sp, #32
	.cfi_def_cfa_offset 32
	str	x0, [sp, #24]
	str	x1, [sp, #16]
	ldr	x9, [sp, #24]
Ltmp110:
	.loc	1 496 20 prologue_end           ; /Library/Developer/CommandLineTools/SDKs/MacOSX.sdk/usr/include/c++/v1/ios:496:20
	ldr	x8, [x9, #24]
	.loc	1 496 14 is_stmt 0              ; /Library/Developer/CommandLineTools/SDKs/MacOSX.sdk/usr/include/c++/v1/ios:496:14
	str	x8, [sp, #8]
	.loc	1 497 20 is_stmt 1              ; /Library/Developer/CommandLineTools/SDKs/MacOSX.sdk/usr/include/c++/v1/ios:497:20
	ldr	x8, [sp, #16]
	.loc	1 497 18 is_stmt 0              ; /Library/Developer/CommandLineTools/SDKs/MacOSX.sdk/usr/include/c++/v1/ios:497:18
	str	x8, [x9, #24]
	.loc	1 498 10 is_stmt 1              ; /Library/Developer/CommandLineTools/SDKs/MacOSX.sdk/usr/include/c++/v1/ios:498:10
	ldr	x0, [sp, #8]
	.loc	1 498 3 epilogue_begin is_stmt 0 ; /Library/Developer/CommandLineTools/SDKs/MacOSX.sdk/usr/include/c++/v1/ios:498:3
	add	sp, sp, #32
	ret
Ltmp111:
Lfunc_end17:
	.cfi_endproc
                                        ; -- End function
	.private_extern	__ZNSt3__112basic_stringIcNS_11char_traitsIcEENS_9allocatorIcEEEC2B8ne190102Emc ; -- Begin function _ZNSt3__112basic_stringIcNS_11char_traitsIcEENS_9allocatorIcEEEC2B8ne190102Emc
	.globl	__ZNSt3__112basic_stringIcNS_11char_traitsIcEENS_9allocatorIcEEEC2B8ne190102Emc
	.weak_def_can_be_hidden	__ZNSt3__112basic_stringIcNS_11char_traitsIcEENS_9allocatorIcEEEC2B8ne190102Emc
	.p2align	2
__ZNSt3__112basic_stringIcNS_11char_traitsIcEENS_9allocatorIcEEEC2B8ne190102Emc: ; @_ZNSt3__112basic_stringIcNS_11char_traitsIcEENS_9allocatorIcEEEC2B8ne190102Emc
Lfunc_begin18:
	.loc	8 1090 0 is_stmt 1              ; /Library/Developer/CommandLineTools/SDKs/MacOSX.sdk/usr/include/c++/v1/string:1090:0
	.cfi_startproc
; %bb.0:
	sub	sp, sp, #48
	stp	x29, x30, [sp, #32]             ; 16-byte Folded Spill
	add	x29, sp, #32
	.cfi_def_cfa w29, 16
	.cfi_offset w30, -8
	.cfi_offset w29, -16
	stur	x0, [x29, #-8]
	str	x1, [sp, #16]
	strb	w2, [sp, #15]
	ldur	x0, [x29, #-8]
	str	x0, [sp]                        ; 8-byte Folded Spill
Ltmp112:
	.loc	8 1090 9 prologue_end           ; /Library/Developer/CommandLineTools/SDKs/MacOSX.sdk/usr/include/c++/v1/string:1090:9
	add	x1, sp, #14
	add	x2, sp, #13
	bl	__ZNSt3__117__compressed_pairINS_12basic_stringIcNS_11char_traitsIcEENS_9allocatorIcEEE5__repES5_EC1B8ne190102INS_18__default_init_tagESA_EEOT_OT0_
	ldr	x0, [sp]                        ; 8-byte Folded Reload
Ltmp113:
	.loc	8 1091 12                       ; /Library/Developer/CommandLineTools/SDKs/MacOSX.sdk/usr/include/c++/v1/string:1091:12
	ldr	x1, [sp, #16]
	.loc	8 1091 17 is_stmt 0             ; /Library/Developer/CommandLineTools/SDKs/MacOSX.sdk/usr/include/c++/v1/string:1091:17
	ldrsb	w2, [sp, #15]
	.loc	8 1091 5                        ; /Library/Developer/CommandLineTools/SDKs/MacOSX.sdk/usr/include/c++/v1/string:1091:5
	bl	__ZNSt3__112basic_stringIcNS_11char_traitsIcEENS_9allocatorIcEEE6__initEmc
	ldr	x0, [sp]                        ; 8-byte Folded Reload
Ltmp114:
	.loc	8 1092 3 epilogue_begin is_stmt 1 ; /Library/Developer/CommandLineTools/SDKs/MacOSX.sdk/usr/include/c++/v1/string:1092:3
	ldp	x29, x30, [sp, #32]             ; 16-byte Folded Reload
	add	sp, sp, #48
	ret
Ltmp115:
Lfunc_end18:
	.cfi_endproc
                                        ; -- End function
	.globl	__ZNSt3__117__compressed_pairINS_12basic_stringIcNS_11char_traitsIcEENS_9allocatorIcEEE5__repES5_EC1B8ne190102INS_18__default_init_tagESA_EEOT_OT0_ ; -- Begin function _ZNSt3__117__compressed_pairINS_12basic_stringIcNS_11char_traitsIcEENS_9allocatorIcEEE5__repES5_EC1B8ne190102INS_18__default_init_tagESA_EEOT_OT0_
	.weak_def_can_be_hidden	__ZNSt3__117__compressed_pairINS_12basic_stringIcNS_11char_traitsIcEENS_9allocatorIcEEE5__repES5_EC1B8ne190102INS_18__default_init_tagESA_EEOT_OT0_
	.p2align	2
__ZNSt3__117__compressed_pairINS_12basic_stringIcNS_11char_traitsIcEENS_9allocatorIcEEE5__repES5_EC1B8ne190102INS_18__default_init_tagESA_EEOT_OT0_: ; @_ZNSt3__117__compressed_pairINS_12basic_stringIcNS_11char_traitsIcEENS_9allocatorIcEEE5__repES5_EC1B8ne190102INS_18__default_init_tagESA_EEOT_OT0_
Lfunc_begin19:
	.loc	9 119 0                         ; /Library/Developer/CommandLineTools/SDKs/MacOSX.sdk/usr/include/c++/v1/__memory/compressed_pair.h:119:0
	.cfi_startproc
; %bb.0:
	sub	sp, sp, #48
	stp	x29, x30, [sp, #32]             ; 16-byte Folded Spill
	add	x29, sp, #32
	.cfi_def_cfa w29, 16
	.cfi_offset w30, -8
	.cfi_offset w29, -16
	stur	x0, [x29, #-8]
	str	x1, [sp, #16]
	str	x2, [sp, #8]
	ldur	x0, [x29, #-8]
	str	x0, [sp]                        ; 8-byte Folded Spill
Ltmp116:
	.loc	9 119 74 prologue_end           ; /Library/Developer/CommandLineTools/SDKs/MacOSX.sdk/usr/include/c++/v1/__memory/compressed_pair.h:119:74
	ldr	x1, [sp, #16]
	ldr	x2, [sp, #8]
	bl	__ZNSt3__117__compressed_pairINS_12basic_stringIcNS_11char_traitsIcEENS_9allocatorIcEEE5__repES5_EC2B8ne190102INS_18__default_init_tagESA_EEOT_OT0_
	ldr	x0, [sp]                        ; 8-byte Folded Reload
	.loc	9 119 75 epilogue_begin is_stmt 0 ; /Library/Developer/CommandLineTools/SDKs/MacOSX.sdk/usr/include/c++/v1/__memory/compressed_pair.h:119:75
	ldp	x29, x30, [sp, #32]             ; 16-byte Folded Reload
	add	sp, sp, #48
	ret
Ltmp117:
Lfunc_end19:
	.cfi_endproc
                                        ; -- End function
	.globl	__ZNSt3__117__compressed_pairINS_12basic_stringIcNS_11char_traitsIcEENS_9allocatorIcEEE5__repES5_EC2B8ne190102INS_18__default_init_tagESA_EEOT_OT0_ ; -- Begin function _ZNSt3__117__compressed_pairINS_12basic_stringIcNS_11char_traitsIcEENS_9allocatorIcEEE5__repES5_EC2B8ne190102INS_18__default_init_tagESA_EEOT_OT0_
	.weak_def_can_be_hidden	__ZNSt3__117__compressed_pairINS_12basic_stringIcNS_11char_traitsIcEENS_9allocatorIcEEE5__repES5_EC2B8ne190102INS_18__default_init_tagESA_EEOT_OT0_
	.p2align	2
__ZNSt3__117__compressed_pairINS_12basic_stringIcNS_11char_traitsIcEENS_9allocatorIcEEE5__repES5_EC2B8ne190102INS_18__default_init_tagESA_EEOT_OT0_: ; @_ZNSt3__117__compressed_pairINS_12basic_stringIcNS_11char_traitsIcEENS_9allocatorIcEEE5__repES5_EC2B8ne190102INS_18__default_init_tagESA_EEOT_OT0_
Lfunc_begin20:
	.loc	9 119 0 is_stmt 1               ; /Library/Developer/CommandLineTools/SDKs/MacOSX.sdk/usr/include/c++/v1/__memory/compressed_pair.h:119:0
	.cfi_startproc
; %bb.0:
	sub	sp, sp, #64
	stp	x29, x30, [sp, #48]             ; 16-byte Folded Spill
	add	x29, sp, #48
	.cfi_def_cfa w29, 16
	.cfi_offset w30, -8
	.cfi_offset w29, -16
	stur	x0, [x29, #-8]
	stur	x1, [x29, #-16]
	str	x2, [sp, #24]
	ldur	x0, [x29, #-8]
	str	x0, [sp, #8]                    ; 8-byte Folded Spill
Ltmp118:
	.loc	9 119 9 prologue_end            ; /Library/Developer/CommandLineTools/SDKs/MacOSX.sdk/usr/include/c++/v1/__memory/compressed_pair.h:119:9
	bl	__ZNSt3__122__compressed_pair_elemINS_12basic_stringIcNS_11char_traitsIcEENS_9allocatorIcEEE5__repELi0ELb0EEC2B8ne190102ENS_18__default_init_tagE
	ldr	x0, [sp, #8]                    ; 8-byte Folded Reload
	.loc	9 119 42 is_stmt 0              ; /Library/Developer/CommandLineTools/SDKs/MacOSX.sdk/usr/include/c++/v1/__memory/compressed_pair.h:119:42
	bl	__ZNSt3__122__compressed_pair_elemINS_9allocatorIcEELi1ELb1EEC2B8ne190102ENS_18__default_init_tagE
	ldr	x0, [sp, #8]                    ; 8-byte Folded Reload
	.loc	9 119 75 epilogue_begin         ; /Library/Developer/CommandLineTools/SDKs/MacOSX.sdk/usr/include/c++/v1/__memory/compressed_pair.h:119:75
	ldp	x29, x30, [sp, #48]             ; 16-byte Folded Reload
	add	sp, sp, #64
	ret
Ltmp119:
Lfunc_end20:
	.cfi_endproc
                                        ; -- End function
	.private_extern	__ZNSt3__122__compressed_pair_elemINS_12basic_stringIcNS_11char_traitsIcEENS_9allocatorIcEEE5__repELi0ELb0EEC2B8ne190102ENS_18__default_init_tagE ; -- Begin function _ZNSt3__122__compressed_pair_elemINS_12basic_stringIcNS_11char_traitsIcEENS_9allocatorIcEEE5__repELi0ELb0EEC2B8ne190102ENS_18__default_init_tagE
	.globl	__ZNSt3__122__compressed_pair_elemINS_12basic_stringIcNS_11char_traitsIcEENS_9allocatorIcEEE5__repELi0ELb0EEC2B8ne190102ENS_18__default_init_tagE
	.weak_def_can_be_hidden	__ZNSt3__122__compressed_pair_elemINS_12basic_stringIcNS_11char_traitsIcEENS_9allocatorIcEEE5__repELi0ELb0EEC2B8ne190102ENS_18__default_init_tagE
	.p2align	2
__ZNSt3__122__compressed_pair_elemINS_12basic_stringIcNS_11char_traitsIcEENS_9allocatorIcEEE5__repELi0ELb0EEC2B8ne190102ENS_18__default_init_tagE: ; @_ZNSt3__122__compressed_pair_elemINS_12basic_stringIcNS_11char_traitsIcEENS_9allocatorIcEEE5__repELi0ELb0EEC2B8ne190102ENS_18__default_init_tagE
Lfunc_begin21:
	.loc	9 48 0 is_stmt 1                ; /Library/Developer/CommandLineTools/SDKs/MacOSX.sdk/usr/include/c++/v1/__memory/compressed_pair.h:48:0
	.cfi_startproc
; %bb.0:
	sub	sp, sp, #16
	.cfi_def_cfa_offset 16
	str	x0, [sp]
	ldr	x0, [sp]
Ltmp121:
	.loc	9 48 96 prologue_end epilogue_begin ; /Library/Developer/CommandLineTools/SDKs/MacOSX.sdk/usr/include/c++/v1/__memory/compressed_pair.h:48:96
	add	sp, sp, #16
	ret
Ltmp122:
Lfunc_end21:
	.cfi_endproc
                                        ; -- End function
	.private_extern	__ZNSt3__122__compressed_pair_elemINS_9allocatorIcEELi1ELb1EEC2B8ne190102ENS_18__default_init_tagE ; -- Begin function _ZNSt3__122__compressed_pair_elemINS_9allocatorIcEELi1ELb1EEC2B8ne190102ENS_18__default_init_tagE
	.globl	__ZNSt3__122__compressed_pair_elemINS_9allocatorIcEELi1ELb1EEC2B8ne190102ENS_18__default_init_tagE
	.weak_def_can_be_hidden	__ZNSt3__122__compressed_pair_elemINS_9allocatorIcEELi1ELb1EEC2B8ne190102ENS_18__default_init_tagE
	.p2align	2
__ZNSt3__122__compressed_pair_elemINS_9allocatorIcEELi1ELb1EEC2B8ne190102ENS_18__default_init_tagE: ; @_ZNSt3__122__compressed_pair_elemINS_9allocatorIcEELi1ELb1EEC2B8ne190102ENS_18__default_init_tagE
Lfunc_begin22:
	.loc	9 77 0                          ; /Library/Developer/CommandLineTools/SDKs/MacOSX.sdk/usr/include/c++/v1/__memory/compressed_pair.h:77:0
	.cfi_startproc
; %bb.0:
	sub	sp, sp, #48
	stp	x29, x30, [sp, #32]             ; 16-byte Folded Spill
	add	x29, sp, #32
	.cfi_def_cfa w29, 16
	.cfi_offset w30, -8
	.cfi_offset w29, -16
	str	x0, [sp, #16]
	ldr	x0, [sp, #16]
	str	x0, [sp, #8]                    ; 8-byte Folded Spill
Ltmp123:
	.loc	9 77 52 prologue_end            ; /Library/Developer/CommandLineTools/SDKs/MacOSX.sdk/usr/include/c++/v1/__memory/compressed_pair.h:77:52
	bl	__ZNSt3__19allocatorIcEC2B8ne190102Ev
	ldr	x0, [sp, #8]                    ; 8-byte Folded Reload
	.loc	9 77 96 epilogue_begin is_stmt 0 ; /Library/Developer/CommandLineTools/SDKs/MacOSX.sdk/usr/include/c++/v1/__memory/compressed_pair.h:77:96
	ldp	x29, x30, [sp, #32]             ; 16-byte Folded Reload
	add	sp, sp, #48
	ret
Ltmp124:
Lfunc_end22:
	.cfi_endproc
                                        ; -- End function
	.private_extern	__ZNSt3__19allocatorIcEC2B8ne190102Ev ; -- Begin function _ZNSt3__19allocatorIcEC2B8ne190102Ev
	.globl	__ZNSt3__19allocatorIcEC2B8ne190102Ev
	.weak_def_can_be_hidden	__ZNSt3__19allocatorIcEC2B8ne190102Ev
	.p2align	2
__ZNSt3__19allocatorIcEC2B8ne190102Ev:  ; @_ZNSt3__19allocatorIcEC2B8ne190102Ev
Lfunc_begin23:
	.loc	6 107 0 is_stmt 1               ; /Library/Developer/CommandLineTools/SDKs/MacOSX.sdk/usr/include/c++/v1/__memory/allocator.h:107:0
	.cfi_startproc
; %bb.0:
	sub	sp, sp, #32
	stp	x29, x30, [sp, #16]             ; 16-byte Folded Spill
	add	x29, sp, #16
	.cfi_def_cfa w29, 16
	.cfi_offset w30, -8
	.cfi_offset w29, -16
	str	x0, [sp, #8]
	ldr	x0, [sp, #8]
	str	x0, [sp]                        ; 8-byte Folded Spill
Ltmp125:
	.loc	6 107 55 prologue_end           ; /Library/Developer/CommandLineTools/SDKs/MacOSX.sdk/usr/include/c++/v1/__memory/allocator.h:107:55
	bl	__ZNSt3__116__non_trivial_ifILb1ENS_9allocatorIcEEEC2B8ne190102Ev
	ldr	x0, [sp]                        ; 8-byte Folded Reload
	.loc	6 107 85 epilogue_begin is_stmt 0 ; /Library/Developer/CommandLineTools/SDKs/MacOSX.sdk/usr/include/c++/v1/__memory/allocator.h:107:85
	ldp	x29, x30, [sp, #16]             ; 16-byte Folded Reload
	add	sp, sp, #32
	ret
Ltmp126:
Lfunc_end23:
	.cfi_endproc
                                        ; -- End function
	.private_extern	__ZNSt3__116__non_trivial_ifILb1ENS_9allocatorIcEEEC2B8ne190102Ev ; -- Begin function _ZNSt3__116__non_trivial_ifILb1ENS_9allocatorIcEEEC2B8ne190102Ev
	.globl	__ZNSt3__116__non_trivial_ifILb1ENS_9allocatorIcEEEC2B8ne190102Ev
	.weak_def_can_be_hidden	__ZNSt3__116__non_trivial_ifILb1ENS_9allocatorIcEEEC2B8ne190102Ev
	.p2align	2
__ZNSt3__116__non_trivial_ifILb1ENS_9allocatorIcEEEC2B8ne190102Ev: ; @_ZNSt3__116__non_trivial_ifILb1ENS_9allocatorIcEEEC2B8ne190102Ev
Lfunc_begin24:
	.loc	6 85 0 is_stmt 1                ; /Library/Developer/CommandLineTools/SDKs/MacOSX.sdk/usr/include/c++/v1/__memory/allocator.h:85:0
	.cfi_startproc
; %bb.0:
	sub	sp, sp, #16
	.cfi_def_cfa_offset 16
	str	x0, [sp, #8]
	ldr	x0, [sp, #8]
Ltmp128:
	.loc	6 85 73 prologue_end epilogue_begin ; /Library/Developer/CommandLineTools/SDKs/MacOSX.sdk/usr/include/c++/v1/__memory/allocator.h:85:73
	add	sp, sp, #16
	ret
Ltmp129:
Lfunc_end24:
	.cfi_endproc
                                        ; -- End function
	.private_extern	__ZNSt3__112__to_addressB8ne190102IKcEEPT_S3_ ; -- Begin function _ZNSt3__112__to_addressB8ne190102IKcEEPT_S3_
	.globl	__ZNSt3__112__to_addressB8ne190102IKcEEPT_S3_
	.weak_definition	__ZNSt3__112__to_addressB8ne190102IKcEEPT_S3_
	.p2align	2
__ZNSt3__112__to_addressB8ne190102IKcEEPT_S3_: ; @_ZNSt3__112__to_addressB8ne190102IKcEEPT_S3_
Lfunc_begin25:
	.file	29 "/Library/Developer/CommandLineTools/SDKs/MacOSX.sdk/usr/include/c++/v1/__memory" "pointer_traits.h"
	.loc	29 190 0                        ; /Library/Developer/CommandLineTools/SDKs/MacOSX.sdk/usr/include/c++/v1/__memory/pointer_traits.h:190:0
	.cfi_startproc
; %bb.0:
	sub	sp, sp, #16
	.cfi_def_cfa_offset 16
	str	x0, [sp, #8]
Ltmp131:
	.loc	29 192 10 prologue_end          ; /Library/Developer/CommandLineTools/SDKs/MacOSX.sdk/usr/include/c++/v1/__memory/pointer_traits.h:192:10
	ldr	x0, [sp, #8]
	.loc	29 192 3 epilogue_begin is_stmt 0 ; /Library/Developer/CommandLineTools/SDKs/MacOSX.sdk/usr/include/c++/v1/__memory/pointer_traits.h:192:3
	add	sp, sp, #16
	ret
Ltmp132:
Lfunc_end25:
	.cfi_endproc
                                        ; -- End function
	.private_extern	__ZNKSt3__112basic_stringIcNS_11char_traitsIcEENS_9allocatorIcEEE13__get_pointerB8ne190102Ev ; -- Begin function _ZNKSt3__112basic_stringIcNS_11char_traitsIcEENS_9allocatorIcEEE13__get_pointerB8ne190102Ev
	.globl	__ZNKSt3__112basic_stringIcNS_11char_traitsIcEENS_9allocatorIcEEE13__get_pointerB8ne190102Ev
	.weak_definition	__ZNKSt3__112basic_stringIcNS_11char_traitsIcEENS_9allocatorIcEEE13__get_pointerB8ne190102Ev
	.p2align	2
__ZNKSt3__112basic_stringIcNS_11char_traitsIcEENS_9allocatorIcEEE13__get_pointerB8ne190102Ev: ; @_ZNKSt3__112basic_stringIcNS_11char_traitsIcEENS_9allocatorIcEEE13__get_pointerB8ne190102Ev
Lfunc_begin26:
	.loc	8 2008 0 is_stmt 1              ; /Library/Developer/CommandLineTools/SDKs/MacOSX.sdk/usr/include/c++/v1/string:2008:0
	.cfi_startproc
; %bb.0:
	sub	sp, sp, #48
	stp	x29, x30, [sp, #32]             ; 16-byte Folded Spill
	add	x29, sp, #32
	.cfi_def_cfa w29, 16
	.cfi_offset w30, -8
	.cfi_offset w29, -16
	stur	x0, [x29, #-8]
	ldur	x0, [x29, #-8]
	str	x0, [sp, #16]                   ; 8-byte Folded Spill
Ltmp133:
	.loc	8 2009 12 prologue_end          ; /Library/Developer/CommandLineTools/SDKs/MacOSX.sdk/usr/include/c++/v1/string:2009:12
	bl	__ZNKSt3__112basic_stringIcNS_11char_traitsIcEENS_9allocatorIcEEE9__is_longB8ne190102Ev
	tbz	w0, #0, LBB26_2
	b	LBB26_1
LBB26_1:
	.loc	8 0 12 is_stmt 0                ; /Library/Developer/CommandLineTools/SDKs/MacOSX.sdk/usr/include/c++/v1/string:0:12
	ldr	x0, [sp, #16]                   ; 8-byte Folded Reload
	.loc	8 2009 26                       ; /Library/Developer/CommandLineTools/SDKs/MacOSX.sdk/usr/include/c++/v1/string:2009:26
	bl	__ZNKSt3__112basic_stringIcNS_11char_traitsIcEENS_9allocatorIcEEE18__get_long_pointerB8ne190102Ev
	str	x0, [sp, #8]                    ; 8-byte Folded Spill
	.loc	8 2009 12                       ; /Library/Developer/CommandLineTools/SDKs/MacOSX.sdk/usr/include/c++/v1/string:2009:12
	b	LBB26_3
LBB26_2:
	.loc	8 0 12                          ; /Library/Developer/CommandLineTools/SDKs/MacOSX.sdk/usr/include/c++/v1/string:0:12
	ldr	x0, [sp, #16]                   ; 8-byte Folded Reload
	.loc	8 2009 49                       ; /Library/Developer/CommandLineTools/SDKs/MacOSX.sdk/usr/include/c++/v1/string:2009:49
	bl	__ZNKSt3__112basic_stringIcNS_11char_traitsIcEENS_9allocatorIcEEE19__get_short_pointerB8ne190102Ev
	str	x0, [sp, #8]                    ; 8-byte Folded Spill
	.loc	8 2009 12                       ; /Library/Developer/CommandLineTools/SDKs/MacOSX.sdk/usr/include/c++/v1/string:2009:12
	b	LBB26_3
LBB26_3:
	.loc	8 0 12                          ; /Library/Developer/CommandLineTools/SDKs/MacOSX.sdk/usr/include/c++/v1/string:0:12
	ldr	x0, [sp, #8]                    ; 8-byte Folded Reload
	.loc	8 2009 5 epilogue_begin         ; /Library/Developer/CommandLineTools/SDKs/MacOSX.sdk/usr/include/c++/v1/string:2009:5
	ldp	x29, x30, [sp, #32]             ; 16-byte Folded Reload
	add	sp, sp, #48
	ret
Ltmp134:
Lfunc_end26:
	.cfi_endproc
                                        ; -- End function
	.private_extern	__ZNKSt3__112basic_stringIcNS_11char_traitsIcEENS_9allocatorIcEEE9__is_longB8ne190102Ev ; -- Begin function _ZNKSt3__112basic_stringIcNS_11char_traitsIcEENS_9allocatorIcEEE9__is_longB8ne190102Ev
	.globl	__ZNKSt3__112basic_stringIcNS_11char_traitsIcEENS_9allocatorIcEEE9__is_longB8ne190102Ev
	.weak_definition	__ZNKSt3__112basic_stringIcNS_11char_traitsIcEENS_9allocatorIcEEE9__is_longB8ne190102Ev
	.p2align	2
__ZNKSt3__112basic_stringIcNS_11char_traitsIcEENS_9allocatorIcEEE9__is_longB8ne190102Ev: ; @_ZNKSt3__112basic_stringIcNS_11char_traitsIcEENS_9allocatorIcEEE9__is_longB8ne190102Ev
Lfunc_begin27:
	.loc	8 1877 0 is_stmt 1              ; /Library/Developer/CommandLineTools/SDKs/MacOSX.sdk/usr/include/c++/v1/string:1877:0
	.cfi_startproc
; %bb.0:
	sub	sp, sp, #32
	stp	x29, x30, [sp, #16]             ; 16-byte Folded Spill
	add	x29, sp, #16
	.cfi_def_cfa w29, 16
	.cfi_offset w30, -8
	.cfi_offset w29, -16
	str	x0, [sp, #8]
	ldr	x0, [sp, #8]
Ltmp135:
	.loc	8 1881 17 prologue_end          ; /Library/Developer/CommandLineTools/SDKs/MacOSX.sdk/usr/include/c++/v1/string:1881:17
	bl	__ZNKSt3__117__compressed_pairINS_12basic_stringIcNS_11char_traitsIcEENS_9allocatorIcEEE5__repES5_E5firstB8ne190102Ev
	.loc	8 1881 29 is_stmt 0             ; /Library/Developer/CommandLineTools/SDKs/MacOSX.sdk/usr/include/c++/v1/string:1881:29
	ldrb	w8, [x0, #23]
	lsr	w8, w8, #7
	.loc	8 1881 12                       ; /Library/Developer/CommandLineTools/SDKs/MacOSX.sdk/usr/include/c++/v1/string:1881:12
	subs	w8, w8, #0
	cset	w0, ne
	.loc	8 1881 5 epilogue_begin         ; /Library/Developer/CommandLineTools/SDKs/MacOSX.sdk/usr/include/c++/v1/string:1881:5
	ldp	x29, x30, [sp, #16]             ; 16-byte Folded Reload
	add	sp, sp, #32
	ret
Ltmp136:
Lfunc_end27:
	.cfi_endproc
                                        ; -- End function
	.private_extern	__ZNKSt3__112basic_stringIcNS_11char_traitsIcEENS_9allocatorIcEEE18__get_long_pointerB8ne190102Ev ; -- Begin function _ZNKSt3__112basic_stringIcNS_11char_traitsIcEENS_9allocatorIcEEE18__get_long_pointerB8ne190102Ev
	.globl	__ZNKSt3__112basic_stringIcNS_11char_traitsIcEENS_9allocatorIcEEE18__get_long_pointerB8ne190102Ev
	.weak_definition	__ZNKSt3__112basic_stringIcNS_11char_traitsIcEENS_9allocatorIcEEE18__get_long_pointerB8ne190102Ev
	.p2align	2
__ZNKSt3__112basic_stringIcNS_11char_traitsIcEENS_9allocatorIcEEE18__get_long_pointerB8ne190102Ev: ; @_ZNKSt3__112basic_stringIcNS_11char_traitsIcEENS_9allocatorIcEEE18__get_long_pointerB8ne190102Ev
Lfunc_begin28:
	.loc	8 1994 0 is_stmt 1              ; /Library/Developer/CommandLineTools/SDKs/MacOSX.sdk/usr/include/c++/v1/string:1994:0
	.cfi_startproc
; %bb.0:
	sub	sp, sp, #32
	stp	x29, x30, [sp, #16]             ; 16-byte Folded Spill
	add	x29, sp, #16
	.cfi_def_cfa w29, 16
	.cfi_offset w30, -8
	.cfi_offset w29, -16
	str	x0, [sp, #8]
	ldr	x0, [sp, #8]
Ltmp137:
	.loc	8 1995 12 prologue_end          ; /Library/Developer/CommandLineTools/SDKs/MacOSX.sdk/usr/include/c++/v1/string:1995:12
	bl	__ZNKSt3__117__compressed_pairINS_12basic_stringIcNS_11char_traitsIcEENS_9allocatorIcEEE5__repES5_E5firstB8ne190102Ev
	ldr	x0, [x0]
	.loc	8 1995 5 epilogue_begin is_stmt 0 ; /Library/Developer/CommandLineTools/SDKs/MacOSX.sdk/usr/include/c++/v1/string:1995:5
	ldp	x29, x30, [sp, #16]             ; 16-byte Folded Reload
	add	sp, sp, #32
	ret
Ltmp138:
Lfunc_end28:
	.cfi_endproc
                                        ; -- End function
	.private_extern	__ZNKSt3__112basic_stringIcNS_11char_traitsIcEENS_9allocatorIcEEE19__get_short_pointerB8ne190102Ev ; -- Begin function _ZNKSt3__112basic_stringIcNS_11char_traitsIcEENS_9allocatorIcEEE19__get_short_pointerB8ne190102Ev
	.globl	__ZNKSt3__112basic_stringIcNS_11char_traitsIcEENS_9allocatorIcEEE19__get_short_pointerB8ne190102Ev
	.weak_definition	__ZNKSt3__112basic_stringIcNS_11char_traitsIcEENS_9allocatorIcEEE19__get_short_pointerB8ne190102Ev
	.p2align	2
__ZNKSt3__112basic_stringIcNS_11char_traitsIcEENS_9allocatorIcEEE19__get_short_pointerB8ne190102Ev: ; @_ZNKSt3__112basic_stringIcNS_11char_traitsIcEENS_9allocatorIcEEE19__get_short_pointerB8ne190102Ev
Lfunc_begin29:
	.loc	8 2002 0 is_stmt 1              ; /Library/Developer/CommandLineTools/SDKs/MacOSX.sdk/usr/include/c++/v1/string:2002:0
	.cfi_startproc
; %bb.0:
	sub	sp, sp, #32
	stp	x29, x30, [sp, #16]             ; 16-byte Folded Spill
	add	x29, sp, #16
	.cfi_def_cfa w29, 16
	.cfi_offset w30, -8
	.cfi_offset w29, -16
	str	x0, [sp, #8]
	ldr	x0, [sp, #8]
Ltmp139:
	.loc	8 2003 12 prologue_end          ; /Library/Developer/CommandLineTools/SDKs/MacOSX.sdk/usr/include/c++/v1/string:2003:12
	bl	__ZNKSt3__117__compressed_pairINS_12basic_stringIcNS_11char_traitsIcEENS_9allocatorIcEEE5__repES5_E5firstB8ne190102Ev
	bl	__ZNSt3__114pointer_traitsIPKcE10pointer_toB8ne190102ERS1_
	.loc	8 2003 5 epilogue_begin is_stmt 0 ; /Library/Developer/CommandLineTools/SDKs/MacOSX.sdk/usr/include/c++/v1/string:2003:5
	ldp	x29, x30, [sp, #16]             ; 16-byte Folded Reload
	add	sp, sp, #32
	ret
Ltmp140:
Lfunc_end29:
	.cfi_endproc
                                        ; -- End function
	.private_extern	__ZNKSt3__117__compressed_pairINS_12basic_stringIcNS_11char_traitsIcEENS_9allocatorIcEEE5__repES5_E5firstB8ne190102Ev ; -- Begin function _ZNKSt3__117__compressed_pairINS_12basic_stringIcNS_11char_traitsIcEENS_9allocatorIcEEE5__repES5_E5firstB8ne190102Ev
	.globl	__ZNKSt3__117__compressed_pairINS_12basic_stringIcNS_11char_traitsIcEENS_9allocatorIcEEE5__repES5_E5firstB8ne190102Ev
	.weak_definition	__ZNKSt3__117__compressed_pairINS_12basic_stringIcNS_11char_traitsIcEENS_9allocatorIcEEE5__repES5_E5firstB8ne190102Ev
	.p2align	2
__ZNKSt3__117__compressed_pairINS_12basic_stringIcNS_11char_traitsIcEENS_9allocatorIcEEE5__repES5_E5firstB8ne190102Ev: ; @_ZNKSt3__117__compressed_pairINS_12basic_stringIcNS_11char_traitsIcEENS_9allocatorIcEEE5__repES5_E5firstB8ne190102Ev
Lfunc_begin30:
	.loc	9 133 0 is_stmt 1               ; /Library/Developer/CommandLineTools/SDKs/MacOSX.sdk/usr/include/c++/v1/__memory/compressed_pair.h:133:0
	.cfi_startproc
; %bb.0:
	sub	sp, sp, #32
	stp	x29, x30, [sp, #16]             ; 16-byte Folded Spill
	add	x29, sp, #16
	.cfi_def_cfa w29, 16
	.cfi_offset w30, -8
	.cfi_offset w29, -16
	str	x0, [sp, #8]
	ldr	x0, [sp, #8]
Ltmp141:
	.loc	9 134 46 prologue_end           ; /Library/Developer/CommandLineTools/SDKs/MacOSX.sdk/usr/include/c++/v1/__memory/compressed_pair.h:134:46
	bl	__ZNKSt3__122__compressed_pair_elemINS_12basic_stringIcNS_11char_traitsIcEENS_9allocatorIcEEE5__repELi0ELb0EE5__getB8ne190102Ev
	.loc	9 134 5 epilogue_begin is_stmt 0 ; /Library/Developer/CommandLineTools/SDKs/MacOSX.sdk/usr/include/c++/v1/__memory/compressed_pair.h:134:5
	ldp	x29, x30, [sp, #16]             ; 16-byte Folded Reload
	add	sp, sp, #32
	ret
Ltmp142:
Lfunc_end30:
	.cfi_endproc
                                        ; -- End function
	.private_extern	__ZNKSt3__122__compressed_pair_elemINS_12basic_stringIcNS_11char_traitsIcEENS_9allocatorIcEEE5__repELi0ELb0EE5__getB8ne190102Ev ; -- Begin function _ZNKSt3__122__compressed_pair_elemINS_12basic_stringIcNS_11char_traitsIcEENS_9allocatorIcEEE5__repELi0ELb0EE5__getB8ne190102Ev
	.globl	__ZNKSt3__122__compressed_pair_elemINS_12basic_stringIcNS_11char_traitsIcEENS_9allocatorIcEEE5__repELi0ELb0EE5__getB8ne190102Ev
	.weak_definition	__ZNKSt3__122__compressed_pair_elemINS_12basic_stringIcNS_11char_traitsIcEENS_9allocatorIcEEE5__repELi0ELb0EE5__getB8ne190102Ev
	.p2align	2
__ZNKSt3__122__compressed_pair_elemINS_12basic_stringIcNS_11char_traitsIcEENS_9allocatorIcEEE5__repELi0ELb0EE5__getB8ne190102Ev: ; @_ZNKSt3__122__compressed_pair_elemINS_12basic_stringIcNS_11char_traitsIcEENS_9allocatorIcEEE5__repELi0ELb0EE5__getB8ne190102Ev
Lfunc_begin31:
	.loc	9 63 0 is_stmt 1                ; /Library/Developer/CommandLineTools/SDKs/MacOSX.sdk/usr/include/c++/v1/__memory/compressed_pair.h:63:0
	.cfi_startproc
; %bb.0:
	sub	sp, sp, #16
	.cfi_def_cfa_offset 16
	str	x0, [sp, #8]
	ldr	x0, [sp, #8]
Ltmp144:
	.loc	9 63 85 prologue_end epilogue_begin ; /Library/Developer/CommandLineTools/SDKs/MacOSX.sdk/usr/include/c++/v1/__memory/compressed_pair.h:63:85
	add	sp, sp, #16
	ret
Ltmp145:
Lfunc_end31:
	.cfi_endproc
                                        ; -- End function
	.private_extern	__ZNSt3__114pointer_traitsIPKcE10pointer_toB8ne190102ERS1_ ; -- Begin function _ZNSt3__114pointer_traitsIPKcE10pointer_toB8ne190102ERS1_
	.globl	__ZNSt3__114pointer_traitsIPKcE10pointer_toB8ne190102ERS1_
	.weak_definition	__ZNSt3__114pointer_traitsIPKcE10pointer_toB8ne190102ERS1_
	.p2align	2
__ZNSt3__114pointer_traitsIPKcE10pointer_toB8ne190102ERS1_: ; @_ZNSt3__114pointer_traitsIPKcE10pointer_toB8ne190102ERS1_
Lfunc_begin32:
	.loc	29 171 0                        ; /Library/Developer/CommandLineTools/SDKs/MacOSX.sdk/usr/include/c++/v1/__memory/pointer_traits.h:171:0
	.cfi_startproc
; %bb.0:
	sub	sp, sp, #16
	.cfi_def_cfa_offset 16
	str	x0, [sp, #8]
Ltmp147:
	.loc	29 172 27 prologue_end          ; /Library/Developer/CommandLineTools/SDKs/MacOSX.sdk/usr/include/c++/v1/__memory/pointer_traits.h:172:27
	ldr	x0, [sp, #8]
	.loc	29 172 5 epilogue_begin is_stmt 0 ; /Library/Developer/CommandLineTools/SDKs/MacOSX.sdk/usr/include/c++/v1/__memory/pointer_traits.h:172:5
	add	sp, sp, #16
	ret
Ltmp148:
Lfunc_end32:
	.cfi_endproc
                                        ; -- End function
	.private_extern	__ZNSt3__119ostreambuf_iteratorIcNS_11char_traitsIcEEEC2B8ne190102ERNS_13basic_ostreamIcS2_EE ; -- Begin function _ZNSt3__119ostreambuf_iteratorIcNS_11char_traitsIcEEEC2B8ne190102ERNS_13basic_ostreamIcS2_EE
	.globl	__ZNSt3__119ostreambuf_iteratorIcNS_11char_traitsIcEEEC2B8ne190102ERNS_13basic_ostreamIcS2_EE
	.weak_def_can_be_hidden	__ZNSt3__119ostreambuf_iteratorIcNS_11char_traitsIcEEEC2B8ne190102ERNS_13basic_ostreamIcS2_EE
	.p2align	2
__ZNSt3__119ostreambuf_iteratorIcNS_11char_traitsIcEEEC2B8ne190102ERNS_13basic_ostreamIcS2_EE: ; @_ZNSt3__119ostreambuf_iteratorIcNS_11char_traitsIcEEEC2B8ne190102ERNS_13basic_ostreamIcS2_EE
Lfunc_begin33:
	.loc	25 53 0 is_stmt 1               ; /Library/Developer/CommandLineTools/SDKs/MacOSX.sdk/usr/include/c++/v1/__iterator/ostreambuf_iterator.h:53:0
	.cfi_startproc
	.cfi_personality 155, ___gxx_personality_v0
	.cfi_lsda 16, Lexception2
; %bb.0:
	sub	sp, sp, #48
	stp	x29, x30, [sp, #32]             ; 16-byte Folded Spill
	add	x29, sp, #32
	.cfi_def_cfa w29, 16
	.cfi_offset w30, -8
	.cfi_offset w29, -16
	stur	x0, [x29, #-8]
	str	x1, [sp, #16]
	ldur	x8, [x29, #-8]
	str	x8, [sp]                        ; 8-byte Folded Spill
Ltmp152:
	.loc	25 53 84 prologue_end           ; /Library/Developer/CommandLineTools/SDKs/MacOSX.sdk/usr/include/c++/v1/__iterator/ostreambuf_iterator.h:53:84
	ldr	x8, [sp, #16]
	ldr	x9, [x8]
	ldur	x9, [x9, #-24]
Ltmp149:
	add	x0, x8, x9
	.loc	25 53 88 is_stmt 0              ; /Library/Developer/CommandLineTools/SDKs/MacOSX.sdk/usr/include/c++/v1/__iterator/ostreambuf_iterator.h:53:88
	bl	__ZNKSt3__19basic_iosIcNS_11char_traitsIcEEE5rdbufB8ne190102Ev
	str	x0, [sp, #8]                    ; 8-byte Folded Spill
Ltmp150:
	b	LBB33_1
LBB33_1:
	.loc	25 0 88                         ; /Library/Developer/CommandLineTools/SDKs/MacOSX.sdk/usr/include/c++/v1/__iterator/ostreambuf_iterator.h:0:88
	ldr	x0, [sp]                        ; 8-byte Folded Reload
	ldr	x8, [sp, #8]                    ; 8-byte Folded Reload
	.loc	25 53 76                        ; /Library/Developer/CommandLineTools/SDKs/MacOSX.sdk/usr/include/c++/v1/__iterator/ostreambuf_iterator.h:53:76
	str	x8, [x0]
	.loc	25 53 98 epilogue_begin         ; /Library/Developer/CommandLineTools/SDKs/MacOSX.sdk/usr/include/c++/v1/__iterator/ostreambuf_iterator.h:53:98
	ldp	x29, x30, [sp, #32]             ; 16-byte Folded Reload
	add	sp, sp, #48
	ret
LBB33_2:
Ltmp151:
	.loc	25 53 88                        ; /Library/Developer/CommandLineTools/SDKs/MacOSX.sdk/usr/include/c++/v1/__iterator/ostreambuf_iterator.h:53:88
	bl	___clang_call_terminate
Ltmp153:
Lfunc_end33:
	.cfi_endproc
	.section	__TEXT,__gcc_except_tab
	.p2align	2, 0x0
GCC_except_table33:
Lexception2:
	.byte	255                             ; @LPStart Encoding = omit
	.byte	155                             ; @TType Encoding = indirect pcrel sdata4
	.uleb128 Lttbase1-Lttbaseref1
Lttbaseref1:
	.byte	1                               ; Call site Encoding = uleb128
	.uleb128 Lcst_end2-Lcst_begin2
Lcst_begin2:
	.uleb128 Ltmp149-Lfunc_begin33          ; >> Call Site 1 <<
	.uleb128 Ltmp150-Ltmp149                ;   Call between Ltmp149 and Ltmp150
	.uleb128 Ltmp151-Lfunc_begin33          ;     jumps to Ltmp151
	.byte	1                               ;   On action: 1
Lcst_end2:
	.byte	1                               ; >> Action Record 1 <<
                                        ;   Catch TypeInfo 1
	.byte	0                               ;   No further actions
	.p2align	2, 0x0
                                        ; >> Catch TypeInfos <<
	.long	0                               ; TypeInfo 1
Lttbase1:
	.p2align	2, 0x0
                                        ; -- End function
	.section	__TEXT,__text,regular,pure_instructions
	.private_extern	__ZNKSt3__19basic_iosIcNS_11char_traitsIcEEE5rdbufB8ne190102Ev ; -- Begin function _ZNKSt3__19basic_iosIcNS_11char_traitsIcEEE5rdbufB8ne190102Ev
	.globl	__ZNKSt3__19basic_iosIcNS_11char_traitsIcEEE5rdbufB8ne190102Ev
	.weak_definition	__ZNKSt3__19basic_iosIcNS_11char_traitsIcEEE5rdbufB8ne190102Ev
	.p2align	2
__ZNKSt3__19basic_iosIcNS_11char_traitsIcEEE5rdbufB8ne190102Ev: ; @_ZNKSt3__19basic_iosIcNS_11char_traitsIcEEE5rdbufB8ne190102Ev
Lfunc_begin34:
	.loc	1 661 0 is_stmt 1               ; /Library/Developer/CommandLineTools/SDKs/MacOSX.sdk/usr/include/c++/v1/ios:661:0
	.cfi_startproc
; %bb.0:
	sub	sp, sp, #32
	stp	x29, x30, [sp, #16]             ; 16-byte Folded Spill
	add	x29, sp, #16
	.cfi_def_cfa w29, 16
	.cfi_offset w30, -8
	.cfi_offset w29, -16
	str	x0, [sp, #8]
	ldr	x0, [sp, #8]
Ltmp154:
	.loc	1 662 74 prologue_end           ; /Library/Developer/CommandLineTools/SDKs/MacOSX.sdk/usr/include/c++/v1/ios:662:74
	bl	__ZNKSt3__18ios_base5rdbufB8ne190102Ev
	.loc	1 662 3 epilogue_begin is_stmt 0 ; /Library/Developer/CommandLineTools/SDKs/MacOSX.sdk/usr/include/c++/v1/ios:662:3
	ldp	x29, x30, [sp, #16]             ; 16-byte Folded Reload
	add	sp, sp, #32
	ret
Ltmp155:
Lfunc_end34:
	.cfi_endproc
                                        ; -- End function
	.private_extern	__ZNKSt3__18ios_base5rdbufB8ne190102Ev ; -- Begin function _ZNKSt3__18ios_base5rdbufB8ne190102Ev
	.globl	__ZNKSt3__18ios_base5rdbufB8ne190102Ev
	.weak_definition	__ZNKSt3__18ios_base5rdbufB8ne190102Ev
	.p2align	2
__ZNKSt3__18ios_base5rdbufB8ne190102Ev: ; @_ZNKSt3__18ios_base5rdbufB8ne190102Ev
Lfunc_begin35:
	.loc	1 370 0 is_stmt 1               ; /Library/Developer/CommandLineTools/SDKs/MacOSX.sdk/usr/include/c++/v1/ios:370:0
	.cfi_startproc
; %bb.0:
	sub	sp, sp, #16
	.cfi_def_cfa_offset 16
	str	x0, [sp, #8]
	ldr	x8, [sp, #8]
Ltmp157:
	.loc	1 370 54 prologue_end           ; /Library/Developer/CommandLineTools/SDKs/MacOSX.sdk/usr/include/c++/v1/ios:370:54
	ldr	x0, [x8, #40]
	.loc	1 370 47 epilogue_begin is_stmt 0 ; /Library/Developer/CommandLineTools/SDKs/MacOSX.sdk/usr/include/c++/v1/ios:370:47
	add	sp, sp, #16
	ret
Ltmp158:
Lfunc_end35:
	.cfi_endproc
                                        ; -- End function
	.private_extern	__ZNKSt3__118_SentinelValueFillINS_11char_traitsIcEEE8__is_setB8ne190102Ev ; -- Begin function _ZNKSt3__118_SentinelValueFillINS_11char_traitsIcEEE8__is_setB8ne190102Ev
	.globl	__ZNKSt3__118_SentinelValueFillINS_11char_traitsIcEEE8__is_setB8ne190102Ev
	.weak_definition	__ZNKSt3__118_SentinelValueFillINS_11char_traitsIcEEE8__is_setB8ne190102Ev
	.p2align	2
__ZNKSt3__118_SentinelValueFillINS_11char_traitsIcEEE8__is_setB8ne190102Ev: ; @_ZNKSt3__118_SentinelValueFillINS_11char_traitsIcEEE8__is_setB8ne190102Ev
Lfunc_begin36:
	.loc	1 547 0 is_stmt 1               ; /Library/Developer/CommandLineTools/SDKs/MacOSX.sdk/usr/include/c++/v1/ios:547:0
	.cfi_startproc
; %bb.0:
	sub	sp, sp, #32
	stp	x29, x30, [sp, #16]             ; 16-byte Folded Spill
	add	x29, sp, #16
	.cfi_def_cfa w29, 16
	.cfi_offset w30, -8
	.cfi_offset w29, -16
	str	x0, [sp, #8]
	ldr	x8, [sp, #8]
Ltmp159:
	.loc	1 547 56 prologue_end           ; /Library/Developer/CommandLineTools/SDKs/MacOSX.sdk/usr/include/c++/v1/ios:547:56
	ldr	w8, [x8]
	str	w8, [sp, #4]                    ; 4-byte Folded Spill
	.loc	1 547 71 is_stmt 0              ; /Library/Developer/CommandLineTools/SDKs/MacOSX.sdk/usr/include/c++/v1/ios:547:71
	bl	__ZNSt3__111char_traitsIcE3eofB8ne190102Ev
	ldr	w8, [sp, #4]                    ; 4-byte Folded Reload
	.loc	1 547 68                        ; /Library/Developer/CommandLineTools/SDKs/MacOSX.sdk/usr/include/c++/v1/ios:547:68
	subs	w8, w8, w0
	cset	w0, ne
	.loc	1 547 49 epilogue_begin         ; /Library/Developer/CommandLineTools/SDKs/MacOSX.sdk/usr/include/c++/v1/ios:547:49
	ldp	x29, x30, [sp, #16]             ; 16-byte Folded Reload
	add	sp, sp, #32
	ret
Ltmp160:
Lfunc_end36:
	.cfi_endproc
                                        ; -- End function
	.private_extern	__ZNKSt3__19basic_iosIcNS_11char_traitsIcEEE5widenB8ne190102Ec ; -- Begin function _ZNKSt3__19basic_iosIcNS_11char_traitsIcEEE5widenB8ne190102Ec
	.globl	__ZNKSt3__19basic_iosIcNS_11char_traitsIcEEE5widenB8ne190102Ec
	.weak_definition	__ZNKSt3__19basic_iosIcNS_11char_traitsIcEEE5widenB8ne190102Ec
	.p2align	2
__ZNKSt3__19basic_iosIcNS_11char_traitsIcEEE5widenB8ne190102Ec: ; @_ZNKSt3__19basic_iosIcNS_11char_traitsIcEEE5widenB8ne190102Ec
Lfunc_begin37:
	.loc	1 688 0 is_stmt 1               ; /Library/Developer/CommandLineTools/SDKs/MacOSX.sdk/usr/include/c++/v1/ios:688:0
	.cfi_startproc
	.cfi_personality 155, ___gxx_personality_v0
	.cfi_lsda 16, Lexception3
; %bb.0:
	sub	sp, sp, #80
	stp	x29, x30, [sp, #64]             ; 16-byte Folded Spill
	add	x29, sp, #64
	.cfi_def_cfa w29, 16
	.cfi_offset w30, -8
	.cfi_offset w29, -16
	stur	x0, [x29, #-8]
	sturb	w1, [x29, #-9]
	ldur	x0, [x29, #-8]
	sub	x8, x29, #24
	str	x8, [sp, #8]                    ; 8-byte Folded Spill
Ltmp166:
	.loc	1 689 44 prologue_end           ; /Library/Developer/CommandLineTools/SDKs/MacOSX.sdk/usr/include/c++/v1/ios:689:44
	bl	__ZNKSt3__18ios_base6getlocEv
	ldr	x0, [sp, #8]                    ; 8-byte Folded Reload
Ltmp161:
	.loc	1 689 10 is_stmt 0              ; /Library/Developer/CommandLineTools/SDKs/MacOSX.sdk/usr/include/c++/v1/ios:689:10
	bl	__ZNSt3__19use_facetB8ne190102INS_5ctypeIcEEEERKT_RKNS_6localeE
	str	x0, [sp, #16]                   ; 8-byte Folded Spill
Ltmp162:
	b	LBB37_1
LBB37_1:
	.loc	1 0 10                          ; /Library/Developer/CommandLineTools/SDKs/MacOSX.sdk/usr/include/c++/v1/ios:0:10
	ldr	x0, [sp, #16]                   ; 8-byte Folded Reload
	.loc	1 689 60                        ; /Library/Developer/CommandLineTools/SDKs/MacOSX.sdk/usr/include/c++/v1/ios:689:60
	ldursb	w1, [x29, #-9]
Ltmp163:
	.loc	1 689 54                        ; /Library/Developer/CommandLineTools/SDKs/MacOSX.sdk/usr/include/c++/v1/ios:689:54
	bl	__ZNKSt3__15ctypeIcE5widenB8ne190102Ec
	str	w0, [sp, #4]                    ; 4-byte Folded Spill
Ltmp164:
	b	LBB37_2
LBB37_2:
	.loc	1 689 3                         ; /Library/Developer/CommandLineTools/SDKs/MacOSX.sdk/usr/include/c++/v1/ios:689:3
	sub	x0, x29, #24
	bl	__ZNSt3__16localeD1Ev
	ldr	w0, [sp, #4]                    ; 4-byte Folded Reload
	.loc	1 689 3 epilogue_begin          ; /Library/Developer/CommandLineTools/SDKs/MacOSX.sdk/usr/include/c++/v1/ios:689:3
	ldp	x29, x30, [sp, #64]             ; 16-byte Folded Reload
	add	sp, sp, #80
	ret
LBB37_3:
Ltmp165:
	.loc	1 690 1 is_stmt 1               ; /Library/Developer/CommandLineTools/SDKs/MacOSX.sdk/usr/include/c++/v1/ios:690:1
	str	x0, [sp, #32]
	mov	x8, x1
	str	w8, [sp, #28]
	.loc	1 689 3                         ; /Library/Developer/CommandLineTools/SDKs/MacOSX.sdk/usr/include/c++/v1/ios:689:3
	sub	x0, x29, #24
	bl	__ZNSt3__16localeD1Ev
	b	LBB37_4
LBB37_4:
	ldr	x0, [sp, #32]
	bl	__Unwind_Resume
Ltmp167:
Lfunc_end37:
	.cfi_endproc
	.section	__TEXT,__gcc_except_tab
	.p2align	2, 0x0
GCC_except_table37:
Lexception3:
	.byte	255                             ; @LPStart Encoding = omit
	.byte	255                             ; @TType Encoding = omit
	.byte	1                               ; Call site Encoding = uleb128
	.uleb128 Lcst_end3-Lcst_begin3
Lcst_begin3:
	.uleb128 Lfunc_begin37-Lfunc_begin37    ; >> Call Site 1 <<
	.uleb128 Ltmp161-Lfunc_begin37          ;   Call between Lfunc_begin37 and Ltmp161
	.byte	0                               ;     has no landing pad
	.byte	0                               ;   On action: cleanup
	.uleb128 Ltmp161-Lfunc_begin37          ; >> Call Site 2 <<
	.uleb128 Ltmp164-Ltmp161                ;   Call between Ltmp161 and Ltmp164
	.uleb128 Ltmp165-Lfunc_begin37          ;     jumps to Ltmp165
	.byte	0                               ;   On action: cleanup
	.uleb128 Ltmp164-Lfunc_begin37          ; >> Call Site 3 <<
	.uleb128 Lfunc_end37-Ltmp164            ;   Call between Ltmp164 and Lfunc_end37
	.byte	0                               ;     has no landing pad
	.byte	0                               ;   On action: cleanup
Lcst_end3:
	.p2align	2, 0x0
                                        ; -- End function
	.section	__TEXT,__text,regular,pure_instructions
	.private_extern	__ZNSt3__118_SentinelValueFillINS_11char_traitsIcEEEaSB8ne190102Ei ; -- Begin function _ZNSt3__118_SentinelValueFillINS_11char_traitsIcEEEaSB8ne190102Ei
	.globl	__ZNSt3__118_SentinelValueFillINS_11char_traitsIcEEEaSB8ne190102Ei
	.weak_definition	__ZNSt3__118_SentinelValueFillINS_11char_traitsIcEEEaSB8ne190102Ei
	.p2align	2
__ZNSt3__118_SentinelValueFillINS_11char_traitsIcEEEaSB8ne190102Ei: ; @_ZNSt3__118_SentinelValueFillINS_11char_traitsIcEEEaSB8ne190102Ei
Lfunc_begin38:
	.loc	1 543 0                         ; /Library/Developer/CommandLineTools/SDKs/MacOSX.sdk/usr/include/c++/v1/ios:543:0
	.cfi_startproc
; %bb.0:
	sub	sp, sp, #16
	.cfi_def_cfa_offset 16
	str	x0, [sp, #8]
	str	w1, [sp, #4]
	ldr	x0, [sp, #8]
Ltmp169:
	.loc	1 544 19 prologue_end           ; /Library/Developer/CommandLineTools/SDKs/MacOSX.sdk/usr/include/c++/v1/ios:544:19
	ldr	w8, [sp, #4]
	.loc	1 544 17 is_stmt 0              ; /Library/Developer/CommandLineTools/SDKs/MacOSX.sdk/usr/include/c++/v1/ios:544:17
	str	w8, [x0]
	.loc	1 545 5 epilogue_begin is_stmt 1 ; /Library/Developer/CommandLineTools/SDKs/MacOSX.sdk/usr/include/c++/v1/ios:545:5
	add	sp, sp, #16
	ret
Ltmp170:
Lfunc_end38:
	.cfi_endproc
                                        ; -- End function
	.private_extern	__ZNKSt3__118_SentinelValueFillINS_11char_traitsIcEEE5__getB8ne190102Ev ; -- Begin function _ZNKSt3__118_SentinelValueFillINS_11char_traitsIcEEE5__getB8ne190102Ev
	.globl	__ZNKSt3__118_SentinelValueFillINS_11char_traitsIcEEE5__getB8ne190102Ev
	.weak_definition	__ZNKSt3__118_SentinelValueFillINS_11char_traitsIcEEE5__getB8ne190102Ev
	.p2align	2
__ZNKSt3__118_SentinelValueFillINS_11char_traitsIcEEE5__getB8ne190102Ev: ; @_ZNKSt3__118_SentinelValueFillINS_11char_traitsIcEEE5__getB8ne190102Ev
Lfunc_begin39:
	.loc	1 548 0                         ; /Library/Developer/CommandLineTools/SDKs/MacOSX.sdk/usr/include/c++/v1/ios:548:0
	.cfi_startproc
; %bb.0:
	sub	sp, sp, #16
	.cfi_def_cfa_offset 16
	str	x0, [sp, #8]
	ldr	x8, [sp, #8]
Ltmp172:
	.loc	1 548 75 prologue_end           ; /Library/Developer/CommandLineTools/SDKs/MacOSX.sdk/usr/include/c++/v1/ios:548:75
	ldr	w0, [x8]
	.loc	1 548 68 epilogue_begin is_stmt 0 ; /Library/Developer/CommandLineTools/SDKs/MacOSX.sdk/usr/include/c++/v1/ios:548:68
	add	sp, sp, #16
	ret
Ltmp173:
Lfunc_end39:
	.cfi_endproc
                                        ; -- End function
	.private_extern	__ZNSt3__111char_traitsIcE3eofB8ne190102Ev ; -- Begin function _ZNSt3__111char_traitsIcE3eofB8ne190102Ev
	.globl	__ZNSt3__111char_traitsIcE3eofB8ne190102Ev
	.weak_definition	__ZNSt3__111char_traitsIcE3eofB8ne190102Ev
	.p2align	2
__ZNSt3__111char_traitsIcE3eofB8ne190102Ev: ; @_ZNSt3__111char_traitsIcE3eofB8ne190102Ev
Lfunc_begin40:
	.cfi_startproc
; %bb.0:
	.loc	5 270 84 prologue_end is_stmt 1 ; /Library/Developer/CommandLineTools/SDKs/MacOSX.sdk/usr/include/c++/v1/__string/char_traits.h:270:84
	mov	w0, #-1                         ; =0xffffffff
	ret
Ltmp174:
Lfunc_end40:
	.cfi_endproc
                                        ; -- End function
	.private_extern	__ZNSt3__19use_facetB8ne190102INS_5ctypeIcEEEERKT_RKNS_6localeE ; -- Begin function _ZNSt3__19use_facetB8ne190102INS_5ctypeIcEEEERKT_RKNS_6localeE
	.globl	__ZNSt3__19use_facetB8ne190102INS_5ctypeIcEEEERKT_RKNS_6localeE
	.weak_definition	__ZNSt3__19use_facetB8ne190102INS_5ctypeIcEEEERKT_RKNS_6localeE
	.p2align	2
__ZNSt3__19use_facetB8ne190102INS_5ctypeIcEEEERKT_RKNS_6localeE: ; @_ZNSt3__19use_facetB8ne190102INS_5ctypeIcEEEERKT_RKNS_6localeE
Lfunc_begin41:
	.loc	4 173 0                         ; /Library/Developer/CommandLineTools/SDKs/MacOSX.sdk/usr/include/c++/v1/__locale:173:0
	.cfi_startproc
; %bb.0:
	sub	sp, sp, #32
	stp	x29, x30, [sp, #16]             ; 16-byte Folded Spill
	add	x29, sp, #16
	.cfi_def_cfa w29, 16
	.cfi_offset w30, -8
	.cfi_offset w29, -16
	str	x0, [sp, #8]
Ltmp175:
	.loc	4 174 38 prologue_end           ; /Library/Developer/CommandLineTools/SDKs/MacOSX.sdk/usr/include/c++/v1/__locale:174:38
	ldr	x0, [sp, #8]
	.loc	4 174 42 is_stmt 0              ; /Library/Developer/CommandLineTools/SDKs/MacOSX.sdk/usr/include/c++/v1/__locale:174:42
	adrp	x1, __ZNSt3__15ctypeIcE2idE@GOTPAGE
	ldr	x1, [x1, __ZNSt3__15ctypeIcE2idE@GOTPAGEOFF]
	bl	__ZNKSt3__16locale9use_facetERNS0_2idE
	.loc	4 174 3 epilogue_begin          ; /Library/Developer/CommandLineTools/SDKs/MacOSX.sdk/usr/include/c++/v1/__locale:174:3
	ldp	x29, x30, [sp, #16]             ; 16-byte Folded Reload
	add	sp, sp, #32
	ret
Ltmp176:
Lfunc_end41:
	.cfi_endproc
                                        ; -- End function
	.private_extern	__ZNKSt3__15ctypeIcE5widenB8ne190102Ec ; -- Begin function _ZNKSt3__15ctypeIcE5widenB8ne190102Ec
	.globl	__ZNKSt3__15ctypeIcE5widenB8ne190102Ec
	.weak_definition	__ZNKSt3__15ctypeIcE5widenB8ne190102Ec
	.p2align	2
__ZNKSt3__15ctypeIcE5widenB8ne190102Ec: ; @_ZNKSt3__15ctypeIcE5widenB8ne190102Ec
Lfunc_begin42:
	.loc	4 571 0 is_stmt 1               ; /Library/Developer/CommandLineTools/SDKs/MacOSX.sdk/usr/include/c++/v1/__locale:571:0
	.cfi_startproc
; %bb.0:
	sub	sp, sp, #32
	stp	x29, x30, [sp, #16]             ; 16-byte Folded Spill
	add	x29, sp, #16
	.cfi_def_cfa w29, 16
	.cfi_offset w30, -8
	.cfi_offset w29, -16
	str	x0, [sp, #8]
	strb	w1, [sp, #7]
	ldr	x0, [sp, #8]
Ltmp177:
	.loc	4 571 75 prologue_end           ; /Library/Developer/CommandLineTools/SDKs/MacOSX.sdk/usr/include/c++/v1/__locale:571:75
	ldrsb	w1, [sp, #7]
	.loc	4 571 66 is_stmt 0              ; /Library/Developer/CommandLineTools/SDKs/MacOSX.sdk/usr/include/c++/v1/__locale:571:66
	ldr	x8, [x0]
	ldr	x8, [x8, #56]
	blr	x8
	.loc	4 571 59 epilogue_begin         ; /Library/Developer/CommandLineTools/SDKs/MacOSX.sdk/usr/include/c++/v1/__locale:571:59
	ldp	x29, x30, [sp, #16]             ; 16-byte Folded Reload
	add	sp, sp, #32
	ret
Ltmp178:
Lfunc_end42:
	.cfi_endproc
	.file	30 "/Library/Developer/CommandLineTools/SDKs/MacOSX.sdk/usr/include/arm" "_types.h" md5 0xb270144f57ae258d0ce80b8f87be068c
                                        ; -- End function
	.private_extern	__ZNSt3__18ios_base8setstateB8ne190102Ej ; -- Begin function _ZNSt3__18ios_base8setstateB8ne190102Ej
	.globl	__ZNSt3__18ios_base8setstateB8ne190102Ej
	.weak_definition	__ZNSt3__18ios_base8setstateB8ne190102Ej
	.p2align	2
__ZNSt3__18ios_base8setstateB8ne190102Ej: ; @_ZNSt3__18ios_base8setstateB8ne190102Ej
Lfunc_begin43:
	.loc	1 505 0 is_stmt 1               ; /Library/Developer/CommandLineTools/SDKs/MacOSX.sdk/usr/include/c++/v1/ios:505:0
	.cfi_startproc
; %bb.0:
	sub	sp, sp, #32
	stp	x29, x30, [sp, #16]             ; 16-byte Folded Spill
	add	x29, sp, #16
	.cfi_def_cfa w29, 16
	.cfi_offset w30, -8
	.cfi_offset w29, -16
	str	x0, [sp, #8]
	str	w1, [sp, #4]
	ldr	x0, [sp, #8]
Ltmp179:
	.loc	1 505 79 prologue_end           ; /Library/Developer/CommandLineTools/SDKs/MacOSX.sdk/usr/include/c++/v1/ios:505:79
	ldr	w8, [x0, #32]
	.loc	1 505 92 is_stmt 0              ; /Library/Developer/CommandLineTools/SDKs/MacOSX.sdk/usr/include/c++/v1/ios:505:92
	ldr	w9, [sp, #4]
	.loc	1 505 90                        ; /Library/Developer/CommandLineTools/SDKs/MacOSX.sdk/usr/include/c++/v1/ios:505:90
	orr	w1, w8, w9
	.loc	1 505 73                        ; /Library/Developer/CommandLineTools/SDKs/MacOSX.sdk/usr/include/c++/v1/ios:505:73
	bl	__ZNSt3__18ios_base5clearEj
	.loc	1 505 102 epilogue_begin        ; /Library/Developer/CommandLineTools/SDKs/MacOSX.sdk/usr/include/c++/v1/ios:505:102
	ldp	x29, x30, [sp, #16]             ; 16-byte Folded Reload
	add	sp, sp, #32
	ret
Ltmp180:
Lfunc_end43:
	.cfi_endproc
                                        ; -- End function
	.private_extern	__ZNSt3__118__constexpr_strlenB8ne190102IcEEmPKT_ ; -- Begin function _ZNSt3__118__constexpr_strlenB8ne190102IcEEmPKT_
	.globl	__ZNSt3__118__constexpr_strlenB8ne190102IcEEmPKT_
	.weak_definition	__ZNSt3__118__constexpr_strlenB8ne190102IcEEmPKT_
	.p2align	2
__ZNSt3__118__constexpr_strlenB8ne190102IcEEmPKT_: ; @_ZNSt3__118__constexpr_strlenB8ne190102IcEEmPKT_
Lfunc_begin44:
	.file	31 "/Library/Developer/CommandLineTools/SDKs/MacOSX.sdk/usr/include/c++/v1/__string" "constexpr_c_functions.h"
	.loc	31 52 0 is_stmt 1               ; /Library/Developer/CommandLineTools/SDKs/MacOSX.sdk/usr/include/c++/v1/__string/constexpr_c_functions.h:52:0
	.cfi_startproc
; %bb.0:
	sub	sp, sp, #32
	stp	x29, x30, [sp, #16]             ; 16-byte Folded Spill
	add	x29, sp, #16
	.cfi_def_cfa w29, 16
	.cfi_offset w30, -8
	.cfi_offset w29, -16
	str	x0, [sp, #8]
Ltmp181:
	.loc	31 66 57 prologue_end           ; /Library/Developer/CommandLineTools/SDKs/MacOSX.sdk/usr/include/c++/v1/__string/constexpr_c_functions.h:66:57
	ldr	x0, [sp, #8]
	.loc	31 66 10 is_stmt 0              ; /Library/Developer/CommandLineTools/SDKs/MacOSX.sdk/usr/include/c++/v1/__string/constexpr_c_functions.h:66:10
	bl	_strlen
	.loc	31 66 3 epilogue_begin          ; /Library/Developer/CommandLineTools/SDKs/MacOSX.sdk/usr/include/c++/v1/__string/constexpr_c_functions.h:66:3
	ldp	x29, x30, [sp, #16]             ; 16-byte Folded Reload
	add	sp, sp, #32
	ret
Ltmp182:
Lfunc_end44:
	.cfi_endproc
                                        ; -- End function
	.section	__TEXT,__cstring,cstring_literals
l_.str:                                 ; @.str
	.asciz	"Hello"

	.file	32 "/Library/Developer/CommandLineTools/usr/lib/clang/17/include" "__stddef_max_align_t.h" md5 0x3c0a2f19d136d39aa835c737c7105def
	.file	33 "/Library/Developer/CommandLineTools/SDKs/MacOSX.sdk/usr/include/c++/v1/__cstddef" "max_align_t.h"
	.file	34 "/Library/Developer/CommandLineTools/SDKs/MacOSX.sdk/usr/include/c++/v1" "stddef.h"
	.file	35 "/Library/Developer/CommandLineTools/SDKs/MacOSX.sdk/usr/include/c++/v1/__cstddef" "nullptr_t.h"
	.file	36 "/Library/Developer/CommandLineTools/SDKs/MacOSX.sdk/usr/include/c++/v1/__cstddef" "ptrdiff_t.h"
	.file	37 "/Library/Developer/CommandLineTools/SDKs/MacOSX.sdk/usr/include/c++/v1/__cstddef" "size_t.h"
	.file	38 "/Library/Developer/CommandLineTools/SDKs/MacOSX.sdk/usr/include" "_stdlib.h" md5 0x17a3e5580239ce2f2af260c9c943ad9b
	.file	39 "/Library/Developer/CommandLineTools/SDKs/MacOSX.sdk/usr/include/c++/v1" "cstdlib"
	.file	40 "/Library/Developer/CommandLineTools/SDKs/MacOSX.sdk/usr/include/malloc" "_malloc.h" md5 0x169c9ed8662627a4a4d92e321cfa866c
	.file	41 "/Library/Developer/CommandLineTools/SDKs/MacOSX.sdk/usr/include" "_abort.h" md5 0xb8994a53d49770cf67adab87821b3fcb
	.file	42 "/Library/Developer/CommandLineTools/SDKs/MacOSX.sdk/usr/include/c++/v1" "stdlib.h"
	.file	43 "/Library/Developer/CommandLineTools/SDKs/MacOSX.sdk/usr/include/sys/_types" "_int8_t.h" md5 0x5052dfe782b50fed2355b8f61a9e4fa9
	.file	44 "/Library/Developer/CommandLineTools/SDKs/MacOSX.sdk/usr/include/c++/v1" "cstdint"
	.file	45 "/Library/Developer/CommandLineTools/SDKs/MacOSX.sdk/usr/include/sys/_types" "_int16_t.h" md5 0x47ed3c3ac6f65bfec021ca2b7be18e7e
	.file	46 "/Library/Developer/CommandLineTools/SDKs/MacOSX.sdk/usr/include/sys/_types" "_int64_t.h" md5 0xe6d85c1a9e23dbf7518ce3b162aac800
	.file	47 "/Library/Developer/CommandLineTools/SDKs/MacOSX.sdk/usr/include/_types" "_uint8_t.h" md5 0x8b64ccf8c67b8c006b07b8daf1b49be5
	.file	48 "/Library/Developer/CommandLineTools/SDKs/MacOSX.sdk/usr/include/_types" "_uint16_t.h" md5 0xf0aa926da906b10566dd3171bf347ab7
	.file	49 "/Library/Developer/CommandLineTools/SDKs/MacOSX.sdk/usr/include/_types" "_uint32_t.h" md5 0x0254eb80c6b9719ac45c3c1cf872109b
	.file	50 "/Library/Developer/CommandLineTools/SDKs/MacOSX.sdk/usr/include/_types" "_uint64_t.h" md5 0x77fc5e91653260959605f129691cf9b1
	.file	51 "/Library/Developer/CommandLineTools/SDKs/MacOSX.sdk/usr/include" "stdint.h" md5 0x042ceedaf4137a8aaa272d0b27434016
	.file	52 "/Library/Developer/CommandLineTools/SDKs/MacOSX.sdk/usr/include/sys/_types" "_intptr_t.h" md5 0xe478ba47270923b1cca6659f19f02db1
	.file	53 "/Library/Developer/CommandLineTools/SDKs/MacOSX.sdk/usr/include/sys/_types" "_uintptr_t.h" md5 0xe70ae655dd1b9d4ae0b1dcc073f5b7e4
	.file	54 "/Library/Developer/CommandLineTools/SDKs/MacOSX.sdk/usr/include/_types" "_intmax_t.h" md5 0xe37b9240f30f486478152ef3989b1545
	.file	55 "/Library/Developer/CommandLineTools/SDKs/MacOSX.sdk/usr/include/_types" "_uintmax_t.h" md5 0x8217a3fbb207d8e87ca5318c313e81c2
	.file	56 "/Library/Developer/CommandLineTools/SDKs/MacOSX.sdk/usr/include" "_string.h" md5 0xc67be38c725261ca8572072ee1574b87
	.file	57 "/Library/Developer/CommandLineTools/SDKs/MacOSX.sdk/usr/include/c++/v1" "cstring"
	.file	58 "/Library/Developer/CommandLineTools/SDKs/MacOSX.sdk/usr/include/c++/v1" "string.h"
	.file	59 "/Library/Developer/CommandLineTools/SDKs/MacOSX.sdk/usr/include/c++/v1/__math" "traits.h"
	.file	60 "/Library/Developer/CommandLineTools/SDKs/MacOSX.sdk/usr/include/c++/v1" "math.h"
	.file	61 "/Library/Developer/CommandLineTools/SDKs/MacOSX.sdk/usr/include/c++/v1/__math" "modulo.h"
	.file	62 "/Library/Developer/CommandLineTools/SDKs/MacOSX.sdk/usr/include/c++/v1" "cmath"
	.file	63 "/Library/Developer/CommandLineTools/SDKs/MacOSX.sdk/usr/include" "math.h" md5 0x35b1ff63542c2c0c144330dd9277d2dc
	.file	64 "/Library/Developer/CommandLineTools/SDKs/MacOSX.sdk/usr/include/sys/_types" "_mbstate_t.h" md5 0x8f920c8f4b68eb07504db5a6777c5466
	.file	65 "/Library/Developer/CommandLineTools/SDKs/MacOSX.sdk/usr/include/c++/v1" "__std_mbstate_t.h"
	.file	66 "/Library/Developer/CommandLineTools/SDKs/MacOSX.sdk/usr/include" "_ctype.h" md5 0xb10215117a277691ffc4168ac4505796
	.file	67 "/Library/Developer/CommandLineTools/SDKs/MacOSX.sdk/usr/include/c++/v1" "cctype"
	.file	68 "/Library/Developer/CommandLineTools/SDKs/MacOSX.sdk/usr/include" "_locale.h" md5 0xa6054df13071a4f642aabbc00435a252
	.file	69 "/Library/Developer/CommandLineTools/SDKs/MacOSX.sdk/usr/include/c++/v1" "clocale"
	.file	70 "/Library/Developer/CommandLineTools/SDKs/MacOSX.sdk/usr/include" "locale.h" md5 0xfcf8310e4aaf18e49a21cced49364afb
	.file	71 "/Library/Developer/CommandLineTools/SDKs/MacOSX.sdk/usr/include/sys/_types" "_wint_t.h" md5 0x6dfd3a3d5009054224653c03b2c2b6ac
	.file	72 "/Library/Developer/CommandLineTools/SDKs/MacOSX.sdk/usr/include/c++/v1" "cwctype"
	.file	73 "/Library/Developer/CommandLineTools/SDKs/MacOSX.sdk/usr/include" "_types.h" md5 0xc789da493a5b476a3618b20a8fcff3c3
	.file	74 "/Library/Developer/CommandLineTools/SDKs/MacOSX.sdk/usr/include/_types" "_wctrans_t.h" md5 0xe70040c8494301cc74e19df26f4c1d76
	.file	75 "/Library/Developer/CommandLineTools/SDKs/MacOSX.sdk/usr/include/_types" "_wctype_t.h" md5 0x8d1720b82a490c742e6a297f971be2a2
	.file	76 "/Library/Developer/CommandLineTools/SDKs/MacOSX.sdk/usr/include" "___wctype.h" md5 0xd5a8bf0b4062c20bda4d49376e5b44d9
	.file	77 "/Library/Developer/CommandLineTools/SDKs/MacOSX.sdk/usr/include" "_wctype.h" md5 0x6bc93063cb32b00d3df790305c546a93
	.file	78 "/Library/Developer/CommandLineTools/SDKs/MacOSX.sdk/usr/include/c++/v1" "cwchar"
	.file	79 "/Library/Developer/CommandLineTools/SDKs/MacOSX.sdk/usr/include" "_time.h" md5 0xe65eafd533c28a52a9094e430476b03e
	.file	80 "/Library/Developer/CommandLineTools/SDKs/MacOSX.sdk/usr/include" "_stdio.h" md5 0xd91ebd7d161d9196cc100822ef0e5cdf
	.file	81 "/Library/Developer/CommandLineTools/SDKs/MacOSX.sdk/usr/include/sys" "_types.h" md5 0xaf82ff6119a9fa80fad635d276556d46
	.file	82 "/Library/Developer/CommandLineTools/SDKs/MacOSX.sdk/usr/include" "_wchar.h" md5 0xc0db33314388059ce7a1663adf1bfda0
	.file	83 "/Library/Developer/CommandLineTools/SDKs/MacOSX.sdk/usr/include/c++/v1" "wchar.h"
	.file	84 "/Library/Developer/CommandLineTools/SDKs/MacOSX.sdk/usr/include/c++/v1" "cstdio"
	.file	85 "/Library/Developer/CommandLineTools/SDKs/MacOSX.sdk/usr/include/sys/_types" "_va_list.h" md5 0x41825c2dccdd98a1587ce428cded44de
	.file	86 "/Library/Developer/CommandLineTools/SDKs/MacOSX.sdk/usr/include" "_printf.h" md5 0x2d37517bd0342aa326aa1d3660ad4ab4
	.file	87 "/Library/Developer/CommandLineTools/SDKs/MacOSX.sdk/usr/include/c++/v1/__chrono" "duration.h"
	.file	88 "/Library/Developer/CommandLineTools/SDKs/MacOSX.sdk/usr/include/sys/_types" "_clock_t.h" md5 0x757b93ac72874f074e33ca41b7ee521d
	.file	89 "/Library/Developer/CommandLineTools/SDKs/MacOSX.sdk/usr/include/c++/v1" "ctime"
	.file	90 "/Library/Developer/CommandLineTools/SDKs/MacOSX.sdk/usr/include/sys/_types" "_time_t.h" md5 0xddc110fab0813d27960d5c9aaba0ed4f
	.file	91 "/Library/Developer/CommandLineTools/SDKs/MacOSX.sdk/usr/include/c++/v1" "cstdarg"